###############################################################################
#                                                                             #
# IAR ELF Linker V5.40.0.51500/W32 for ARM              20/Jan/2013  13:01:02 #
# Copyright (C) 2007-2009 IAR Systems AB.                                     #
#                                                                             #
#    Output file  =  E:\Ghadir_Win_Prg\hardware\GP\Output\LPC2388\Debug_Flash #
#                    \Exe\GP.out.tmp                                          #
#    Map file     =  E:\Ghadir_Win_Prg\hardware\GP\Output\LPC2388\Debug_Flash #
#                    \List\GP.map                                             #
#    Command line =  "D:\Program Files\IAR Systems\Embedded Workbench         #
#                    5.4\arm\PowerPac\FileSystem\Lib\fs4t_al__dn.a"           #
#                    "D:\Program Files\IAR Systems\Embedded Workbench         #
#                    5.4\arm\PowerPac\RTOS\Lib\os4t_al__d.a" "D:\Program      #
#                    Files\IAR Systems\Embedded Workbench                     #
#                    5.4\arm\PowerPac\TCPIP\Lib\ip4t_al__d.a" "D:\Program     #
#                    Files\IAR Systems\Embedded Workbench                     #
#                    5.4\arm\PowerPac\USB\Lib\usb4t_al__d.a"                  #
#                    E:\Ghadir_Win_Prg\hardware\GP\Output\LPC2388\Debug_Flash #
#                    \Obj\Alarm.o E:\Ghadir_Win_Prg\hardware\GP\Output\LPC238 #
#                    8\Debug_Flash\Obj\BSP.o E:\Ghadir_Win_Prg\hardware\GP\Ou #
#                    tput\LPC2388\Debug_Flash\Obj\BackLight.o                 #
#                    E:\Ghadir_Win_Prg\hardware\GP\Output\LPC2388\Debug_Flash #
#                    \Obj\Beep.o E:\Ghadir_Win_Prg\hardware\GP\Output\LPC2388 #
#                    \Debug_Flash\Obj\Buffer.o E:\Ghadir_Win_Prg\hardware\GP\ #
#                    Output\LPC2388\Debug_Flash\Obj\COM.o                     #
#                    E:\Ghadir_Win_Prg\hardware\GP\Output\LPC2388\Debug_Flash #
#                    \Obj\Coding.o E:\Ghadir_Win_Prg\hardware\GP\Output\LPC23 #
#                    88\Debug_Flash\Obj\Communication.o                       #
#                    E:\Ghadir_Win_Prg\hardware\GP\Output\LPC2388\Debug_Flash #
#                    \Obj\CommunicationPacket.o E:\Ghadir_Win_Prg\hardware\GP #
#                    \Output\LPC2388\Debug_Flash\Obj\Control.o                #
#                    E:\Ghadir_Win_Prg\hardware\GP\Output\LPC2388\Debug_Flash #
#                    \Obj\DAC.o E:\Ghadir_Win_Prg\hardware\GP\Output\LPC2388\ #
#                    Debug_Flash\Obj\DateTime.o E:\Ghadir_Win_Prg\hardware\GP #
#                    \Output\LPC2388\Debug_Flash\Obj\Device.o                 #
#                    E:\Ghadir_Win_Prg\hardware\GP\Output\LPC2388\Debug_Flash #
#                    \Obj\DigitalData.o E:\Ghadir_Win_Prg\hardware\GP\Output\ #
#                    LPC2388\Debug_Flash\Obj\FS_ConfigIO.o                    #
#                    E:\Ghadir_Win_Prg\hardware\GP\Output\LPC2388\Debug_Flash #
#                    \Obj\FS_ConfigMMC_MCI.o E:\Ghadir_Win_Prg\hardware\GP\Ou #
#                    tput\LPC2388\Debug_Flash\Obj\FS_MMC_HW_MCI.o             #
#                    E:\Ghadir_Win_Prg\hardware\GP\Output\LPC2388\Debug_Flash #
#                    \Obj\FS_OS.o E:\Ghadir_Win_Prg\hardware\GP\Output\LPC238 #
#                    8\Debug_Flash\Obj\Finger.o E:\Ghadir_Win_Prg\hardware\GP #
#                    \Output\LPC2388\Debug_Flash\Obj\FingerPacket.o           #
#                    E:\Ghadir_Win_Prg\hardware\GP\Output\LPC2388\Debug_Flash #
#                    \Obj\Font.o E:\Ghadir_Win_Prg\hardware\GP\Output\LPC2388 #
#                    \Debug_Flash\Obj\Font2.o E:\Ghadir_Win_Prg\hardware\GP\O #
#                    utput\LPC2388\Debug_Flash\Obj\HResource.o                #
#                    E:\Ghadir_Win_Prg\hardware\GP\Output\LPC2388\Debug_Flash #
#                    \Obj\Hardware.o E:\Ghadir_Win_Prg\hardware\GP\Output\LPC #
#                    2388\Debug_Flash\Obj\IP_ConfigIO.o                       #
#                    E:\Ghadir_Win_Prg\hardware\GP\Output\LPC2388\Debug_Flash #
#                    \Obj\IP_Config_LPC23xx.o E:\Ghadir_Win_Prg\hardware\GP\O #
#                    utput\LPC2388\Debug_Flash\Obj\IP_OS.o                    #
#                    E:\Ghadir_Win_Prg\hardware\GP\Output\LPC2388\Debug_Flash #
#                    \Obj\JLINKDCC_ProcessV2.o E:\Ghadir_Win_Prg\hardware\GP\ #
#                    Output\LPC2388\Debug_Flash\Obj\Key.o                     #
#                    E:\Ghadir_Win_Prg\hardware\GP\Output\LPC2388\Debug_Flash #
#                    \Obj\LCD.o E:\Ghadir_Win_Prg\hardware\GP\Output\LPC2388\ #
#                    Debug_Flash\Obj\LED.o E:\Ghadir_Win_Prg\hardware\GP\Outp #
#                    ut\LPC2388\Debug_Flash\Obj\MResource.o                   #
#                    E:\Ghadir_Win_Prg\hardware\GP\Output\LPC2388\Debug_Flash #
#                    \Obj\MY_USB.o E:\Ghadir_Win_Prg\hardware\GP\Output\LPC23 #
#                    88\Debug_Flash\Obj\Main.o E:\Ghadir_Win_Prg\hardware\GP\ #
#                    Output\LPC2388\Debug_Flash\Obj\Menu.o                    #
#                    E:\Ghadir_Win_Prg\hardware\GP\Output\LPC2388\Debug_Flash #
#                    \Obj\Mifare.o E:\Ghadir_Win_Prg\hardware\GP\Output\LPC23 #
#                    88\Debug_Flash\Obj\MifareEx.o                            #
#                    E:\Ghadir_Win_Prg\hardware\GP\Output\LPC2388\Debug_Flash #
#                    \Obj\MifarePacket.o E:\Ghadir_Win_Prg\hardware\GP\Output #
#                    \LPC2388\Debug_Flash\Obj\Network.o                       #
#                    E:\Ghadir_Win_Prg\hardware\GP\Output\LPC2388\Debug_Flash #
#                    \Obj\Notify.o E:\Ghadir_Win_Prg\hardware\GP\Output\LPC23 #
#                    88\Debug_Flash\Obj\OS_Error.o                            #
#                    E:\Ghadir_Win_Prg\hardware\GP\Output\LPC2388\Debug_Flash #
#                    \Obj\Packet.o E:\Ghadir_Win_Prg\hardware\GP\Output\LPC23 #
#                    88\Debug_Flash\Obj\Personal.o                            #
#                    E:\Ghadir_Win_Prg\hardware\GP\Output\LPC2388\Debug_Flash #
#                    \Obj\RTOSINIT_LPC2378.o E:\Ghadir_Win_Prg\hardware\GP\Ou #
#                    tput\LPC2388\Debug_Flash\Obj\Setting.o                   #
#                    E:\Ghadir_Win_Prg\hardware\GP\Output\LPC2388\Debug_Flash #
#                    \Obj\ShowTime.o E:\Ghadir_Win_Prg\hardware\GP\Output\LPC #
#                    2388\Debug_Flash\Obj\Sound.o                             #
#                    E:\Ghadir_Win_Prg\hardware\GP\Output\LPC2388\Debug_Flash #
#                    \Obj\Status.o E:\Ghadir_Win_Prg\hardware\GP\Output\LPC23 #
#                    88\Debug_Flash\Obj\USB_Config_LPC2378.o                  #
#                    E:\Ghadir_Win_Prg\hardware\GP\Output\LPC2388\Debug_Flash #
#                    \Obj\USB_OS.o E:\Ghadir_Win_Prg\hardware\GP\Output\LPC23 #
#                    88\Debug_Flash\Obj\Utility.o                             #
#                    E:\Ghadir_Win_Prg\hardware\GP\Output\LPC2388\Debug_Flash #
#                    \Obj\View.o E:\Ghadir_Win_Prg\hardware\GP\Output\LPC2388 #
#                    \Debug_Flash\Obj\target.o --redirect                     #
#                    _Printf=_PrintfSmall --redirect _Scanf=_ScanfSmall -o    #
#                    E:\Ghadir_Win_Prg\hardware\GP\Output\LPC2388\Debug_Flash #
#                    \Exe\GP.out.tmp --map E:\Ghadir_Win_Prg\hardware\GP\Outp #
#                    ut\LPC2388\Debug_Flash\List\GP.map --config              #
#                    E:\Ghadir_Win_Prg\hardware\GP\GP.icf --redirect          #
#                    __write=__write_buffered --semihosting                   #
#                                                                             #
#                                                                             #
###############################################################################

*******************************************************************************
*** RUNTIME MODEL ATTRIBUTES
***

__endian      = little
__thumb_aware = enabled


*******************************************************************************
*** PLACEMENT SUMMARY
***

"A1":  place at 0x00000000 { ro section .intvec };
"A2":  place at 0x000001fc { ro section CRP_Pattern };
"P1":  place in [from 0x00000080 to 0x0007ffff] { ro };
"P2":  place in [from 0x40000000 to 0x4000ffff] {
          rw, block CSTACK, block SVC_STACK, block IRQ_STACK, block FIQ_STACK,
          block UND_STACK, block ABT_STACK, block HEAP };

  Section             Kind        Address     Size  Object
  -------             ----        -------     ----  ------
"A1":                                         0x3c
  .intvec             ro code  0x00000000     0x3c  cstartup.o [7]
                             - 0x0000003c     0x3c

"A2":                                          0x4
  CRP_Pattern         const    0x000001fc      0x4  Main.o [1]
                             - 0x00000200      0x4

"P1":                                      0x5723d
  .text               ro code  0x00000200   0x7f08  Menu.o [1]
  .rodata             const    0x00008108   0x399c  Font.o [1]
  .text               ro code  0x0000baa4   0x35cc  Communication.o [1]
  .text               ro code  0x0000f070   0x33ac  Hardware.o [1]
  .text               ro code  0x0001241c   0x2cd4  Personal.o [1]
  .rodata             const    0x000150f0   0x29bc  Sound.o [1]
  .rodata             const    0x00017aac   0x257c  Font.o [1]
  .rodata             const    0x0001a028   0x1f60  Font.o [1]
  .text               ro code  0x0001bf88   0x1df0  Control.o [1]
  .rodata             const    0x0001dd78   0x1cdc  Sound.o [1]
  .rodata             const    0x0001fa54   0x1bbc  Sound.o [1]
  .text               ro code  0x00021610   0x1aac  IP_TCP_in.o [5]
  .rodata             const    0x000230bc   0x1a0c  Sound.o [1]
  .rodata             const    0x00024ac8   0x19f8  Sound.o [1]
  .text               ro code  0x000264c0   0x1950  Finger.o [1]
  .text               ro code  0x00027e10   0x168c  USB_MSD.o [9]
  .rodata             const    0x0002949c   0x154c  Font.o [1]
  .rodata             const    0x0002a9e8   0x146c  Font.o [1]
  .text               ro code  0x0002be54   0x137c  IP_socket.o [5]
  .rodata             const    0x0002d1d0   0x11b0  Font.o [1]
  .text               ro code  0x0002e380   0x10d4  MifareEx.o [1]
  .text               ro code  0x0002f454   0x10b4  MMC_SD_CardMode_Drv.o [4]
  .text               ro code  0x00030508   0x101c  FAT_Misc.o [4]
  .text               ro code  0x00031524    0xfc8  DateTime.o [1]
  .text               ro code  0x000324ec    0xed8  USB_Setup.o [9]
  .text               ro code  0x000333c4    0xec0  LCD.o [1]
  .text               ro code  0x00034284    0xe58  USB_Main.o [9]
  .text               ro code  0x000350dc    0xdb0  Mifare.o [1]
  .text               ro code  0x00035e8c    0xdac  Setting.o [1]
  .text               ro code  0x00036c38    0xcc4  Key.o [1]
  .text               ro code  0x000378fc    0xc50  CommunicationPacket.o [1]
  .text               ro code  0x0003854c    0xbd4  COM.o [1]
  .rodata             const    0x00039120    0xb84  Font.o [1]
  .text               ro code  0x00039ca4    0xaec  IP_Core.o [5]
  .text               ro code  0x0003a790    0xa48  Notify.o [1]
  .text               ro code  0x0003b1d8    0x9e8  FS_MMC_HW_MCI.o [1]
  .text               ro code  0x0003bbc0    0x990  OSKERN.o [6]
  .text               ro code  0x0003c550    0x974  FAT_Open.o [4]
  .text               ro code  0x0003cec4    0x964  IP_TCP_out.o [5]
  .text               ro code  0x0003d828    0x8b4  IP_TCP.o [5]
  .text               ro code  0x0003e0dc    0x85c  Network.o [1]
  .text               ro code  0x0003e938    0x858  FS_LogBlock.o [4]
  .text               ro code  0x0003f190    0x7bc  FAT_Format.o [4]
  .text               ro code  0x0003f94c    0x7b4  LED.o [1]
  .text               ro code  0x00040100    0x7b0  IP_socket2.o [5]
  .text               ro code  0x000408b0    0x7a8  USB_HW_LPC23xx.o [9]
  .text               ro code  0x00041058    0x794  FS_Misc.o [4]
  .text               ro code  0x000417ec    0x704  xprintfsmall.o [3]
  .text               ro code  0x00041ef0    0x6f0  IP_NI_LPC24xx.o [5]
  .text               ro code  0x000425e0    0x6c4  IP_UDP.o [5]
  .text               ro code  0x00042ca4    0x688  Alarm.o [1]
  .text               ro code  0x0004332c    0x5d0  IP_ARP.o [5]
  .text               ro code  0x000438fc    0x59c  JLINKDCC_ProcessV2.o [1]
  .text               ro code  0x00043e98    0x590  IP_UDPSock.o [5]
  .text               ro code  0x00044428    0x578  FAT_Write.o [4]
  .text               ro code  0x000449a0    0x570  string.o [3]
  .text               ro code  0x00044f10    0x56c  RTOSINIT_LPC2378.o [1]
  .text               ro code  0x0004547c    0x564  FingerPacket.o [1]
  .text               ro code  0x000459e0    0x560  IP_TCP_timr.o [5]
  .text               ro code  0x00045f40    0x558  Font2.o [1]
  .text               ro code  0x00046498    0x520  IP_TCP_usr.o [5]
  .text               ro code  0x000469b8    0x4ec  FS_Storage.o [4]
  .text               ro code  0x00046ea4    0x4cc  Buffer.o [1]
  .text               ro code  0x00047370    0x4a8  IP_TCP_pcb.o [5]
  .text               ro code  0x00047818    0x490  xlog.o [3]
  .text               ro code  0x00047ca8    0x45c  FAT_FormatSD.o [4]
  .text               ro code  0x00048104    0x458  IP_Log.o [5]
  .text               ro code  0x0004855c    0x458  IP_TCP_subr.o [5]
  .rodata             const    0x000489b4    0x400  Font.o [1]
  .text               ro code  0x00048db4    0x3f8  BackLight.o [1]
  .text               ro code  0x000491ac    0x3f8  Font.o [1]
  .rodata             const    0x000495a4    0x3f4  Font.o [1]
  .text               ro code  0x00049998    0x3f0  DigitalData.o [1]
  .text               ro code  0x00049d88    0x3c0  IP_IP.o [5]
  .text               ro code  0x0004a148    0x39c  FAT_Dir.o [4]
  .text               ro code  0x0004a4e4    0x398  MY_USB.o [1]
  .text               ro code  0x0004a87c    0x378  target.o [1]
  .text               ro code  0x0004abf4    0x374  MifarePacket.o [1]
  .text               ro code  0x0004af68    0x35c  Utility.o [1]
  .text               ro code  0x0004b2c4    0x354  Status.o [1]
  .text               ro code  0x0004b618    0x338  DblDiv.o [7]
  .text               ro code  0x0004b950    0x320  DAC.o [1]
  .text               ro code  0x0004bc70    0x31c  Beep.o [1]
  .text               ro code  0x0004bf8c    0x31c  FAT_Read.o [4]
  .text               ro code  0x0004c2a8    0x2f4  IP_PHY.o [5]
  .text               ro code  0x0004c59c    0x2c8  IP_OS.o [1]
  .text               ro code  0x0004c864    0x2ac  View.o [1]
  .text               ro code  0x0004cb10    0x2a8  xflog.o [3]
  .text               ro code  0x0004cdb8    0x29c  Sound.o [1]
  .text               ro code  0x0004d054    0x288  ShowTime.o [1]
  .text               ro code  0x0004d2dc    0x274  IP_ICMP.o [5]
  .text               ro code  0x0004d550    0x25c  FS_Dir.o [4]
  .text               ro code  0x0004d7ac    0x24c  IP_ConfigIO.o [1]
  .text               ro code  0x0004d9f8    0x248  OSTIME.o [6]
  .text               ro code  0x0004dc40    0x248  FS_Core.o [4]
  .rodata             const    0x0004de88    0x240  Font2.o [1]
  .text               ro code  0x0004e0c8    0x240  OSRSEM.o [6]
  .text               ro code  0x0004e308    0x240  IP_Packet.o [5]
  .text               ro code  0x0004e548    0x23c  USB_MSD_STORAGE_FS.o [9]
  .rodata             const    0x0004e784    0x228  Font.o [1]
  .text               ro code  0x0004e9ac    0x200  FS_Log.o [4]
  .text               ro code  0x0004ebac    0x200  FAT_Move.o [4]
  .text               ro code  0x0004edac    0x1f8  DblMul.o [7]
  .text               ro code  0x0004efa4    0x1f0  rtos.o [6]
  .text               ro code  0x0004f194    0x1f0  DblSub.o [7]
  .text               ro code  0x0004f384    0x1d4  IP_Q.o [5]
  .text               ro code  0x0004f558    0x1d4  I32DivMod.o [7]
  .text               ro code  0x0004f72c    0x1c8  FltDiv.o [7]
  .text               ro code  0x0004f8f4    0x1c0  OSCSEM.o [6]
  .text               ro code  0x0004fab4    0x194  FS_Partition.o [4]
  .rodata             const    0x0004fc48    0x188  IP_TCP_in.o [5]
  .rodata             const    0x0004fdd0    0x17c  FAT_Format.o [4]
  .text               ro code  0x0004ff4c    0x170  Device.o [1]
  .text               ro code  0x000500bc    0x160  USB_Config_LPC2378.o [1]
  .text               ro code  0x0005021c    0x15c  xxwritebuffered.o [3]
  .text               ro code  0x00050378    0x15c  xdint.o [3]
  .text               ro code  0x000504d4    0x154  xdnorm.o [3]
  .text               ro code  0x00050628    0x154  xxmemxmalloc.o [3]
  .rodata             const    0x0005077c    0x150  Font2.o [1]
  .text               ro code  0x000508cc    0x14c  FltMul.o [7]
  .text               ro code  0x00050a18    0x140  DblAdd.o [7]
  .rodata             const    0x00050b58    0x138  Font.o [1]
  .text               ro code  0x00050c90    0x138  USB_OS.o [1]
  .text               ro code  0x00050dc8    0x12c  FltSub.o [7]
  .text               ro code  0x00050ef4    0x120  IP_Config_LPC23xx.o [1]
  .text               ro code  0x00051014    0x120  OS_CreateTaskEx.o [6]
  .text               ro code  0x00051134    0x118  FS_ConfigMMC_MCI.o [1]
  .text               ro code  0x0005124c    0x118  OS_CreateTask.o [6]
  .rodata             const    0x00051364    0x114  FAT_Misc.o [4]
  .rodata             const    0x00051478    0x114  IP_IP.o [5]
  .text               ro code  0x0005158c    0x114  FS_memcpy.o [4]
  .text               ro code  0x000516a0    0x110  xxmemxfree.o [3]
  .rodata             const    0x000517b0    0x108  Font.o [1]
  .text               ro code  0x000518b8    0x108  OS_Suspend.o [6]
  .text               ro code  0x000519c0    0x108  cppinit.o [3]
  .text               ro code  0x00051ac8     0xf4  packbits_init2.o [7]
  .rodata             const    0x00051bbc     0xe8  IP_TCP_out.o [5]
  .text               ro code  0x00051ca4     0xe8  xfdint.o [3]
  .text               ro code  0x00051d8c     0xe4  OSTERM.o [6]
  .text               ro code  0x00051e70     0xe0  xfdnorm.o [3]
  .text               ro code  0x00051f50     0xdc  BSP.o [1]
  .text               ro code  0x0005202c     0xd4  ABImemcpy.o [7]
  .text               ro code  0x00052100     0xd4  ABImemmove.o [7]
  .text               ro code  0x000521d4     0xcc  MResource.o [1]
  .text               ro code  0x000522a0     0xcc  OS_EVENT_WaitTimed.o [6]
  .rodata             const    0x0005236c     0xc8  Font.o [1]
  .rodata             const    0x00052434     0xbc  IP_UDP.o [5]
  .text               ro code  0x000524f0     0xbc  DAC.o [1]
  .text               ro code  0x000525ac     0xbc  IP_TCP_zio.o [5]
  .text               ro code  0x00052668     0xbc  xsyslock.o [3]
  .text               ro code  0x00052724     0xb0  HResource.o [1]
  .text               ro code  0x000527d4     0xac  DblToFlt.o [7]
  .rodata             const    0x00052880     0xa8  IP_socket.o [5]
  .text               ro code  0x00052928     0xa8  FS_Unmount.o [4]
  .text               ro code  0x000529d0     0xa8  iarwstd.o [8]
  .rodata             const    0x00052a78     0xa4  FAT_Move.o [4]
  .text               ro code  0x00052b1c     0xa4  FS_Volume.o [4]
  .text               ro code  0x00052bc0     0xa4  OS_EVENT_Set.o [6]
  .text               ro code  0x00052c64     0xa4  FltAdd.o [7]
  .rodata             const    0x00052d08     0x9c  FS_Misc.o [4]
  .rodata             const    0x00052da4     0x9c  FAT_Dir.o [4]
  .text               ro code  0x00052e40     0x9c  strncpy.o [7]
  .text               ro code  0x00052edc     0x98  OS_TICK_Handle.o [6]
  .rodata             const    0x00052f74     0x94  IP_socket.o [5]
  .text               ro code  0x00053008     0x94  memchr.o [7]
  .text               ro code  0x0005309c     0x90  FS_Write.o [4]
  .rodata             const    0x0005312c     0x8c  IP_Packet.o [5]
  .text               ro code  0x000531b8     0x8c  OS_EVENT_Delete.o [6]
  .text               ro code  0x00053244     0x8c  OS_EVENT_Pulse.o [6]
  .rodata             const    0x000532d0     0x88  FS_Misc.o [4]
  .text               ro code  0x00053358     0x88  DigitalData.o [1]
  .text               ro code  0x000533e0     0x84  OS_EVENT_Wait.o [6]
  .text               ro code  0x00053464     0x80  FAT_Rename.o [4]
  .rodata             const    0x000534e4     0x7c  IP_Core.o [5]
  .rodata             const    0x00053560     0x7c  IP_PHY.o [5]
  .rodata             const    0x000535dc     0x7c  IP_UDPSock.o [5]
  .text               ro code  0x00053658     0x7c  ABImemset.o [7]
  .rodata             const    0x000536d4     0x78  FAT_Read.o [4]
  .rodata             const    0x0005374c     0x74  IP_UDP.o [5]
  .text               ro code  0x000537c0     0x74  Packet.o [1]
  .text               ro code  0x00053834     0x74  strcmp.o [7]
  .text               ro code  0x000538a8     0x74  memcmp.o [7]
  .rodata             const    0x0005391c     0x70  MMC_SD_CardMode_Drv.o [4]
  .rodata             const    0x0005398c     0x70  IP_socket.o [5]
  .rodata             const    0x000539fc     0x70  FS_Write.o [4]
  .rodata             const    0x00053a6c     0x70  FAT_Misc.o [4]
  .text               ro code  0x00053adc     0x70  OS_DeactivateTP.o [6]
  .text               ro code  0x00053b4c     0x70  ceil.o [3]
  .rodata             const    0x00053bbc     0x6c  FAT_Misc.o [4]
  .text               ro code  0x00053c28     0x6c  strcpy.o [7]
  .rodata             const    0x00053c94     0x68  IP_Core.o [5]
  .rodata             const    0x00053cfc     0x68  FAT_Format.o [4]
  .text               ro code  0x00053d64     0x68  FS_Read.o [4]
  .rodata             const    0x00053dcc     0x64  FAT_Open.o [4]
  .rodata             const    0x00053e30     0x64  IP_ICMP.o [5]
  .text               ro code  0x00053e94     0x64  FltToDbl.o [7]
  .text               ro code  0x00053ef8     0x64  S32ToFlt.o [7]
  .rodata             const    0x00053f5c     0x60  FS_Core.o [4]
  .rodata             const    0x00053fbc     0x60  FAT_Read.o [4]
  .rodata             const    0x0005401c     0x60  IP_ARP.o [5]
  .rodata             const    0x0005407c     0x60  IP_socket2.o [5]
  .text               ro code  0x000540dc     0x60  OS_DeactivateP.o [6]
  .text               ro code  0x0005413c     0x60  DblToS32.o [7]
  .rodata             const    0x0005419c     0x5c  FS_Storage.o [4]
  .rodata             const    0x000541f8     0x5c  MMC_SD_CardMode_Drv.o [4]
  .rodata             const    0x00054254     0x58  MMC_SD_CardMode_Drv.o [4]
  .rodata             const    0x000542ac     0x58  IP_NI_LPC24xx.o [5]
  .rodata             const    0x00054304     0x58  FAT_Write.o [4]
  .text               ro code  0x0005435c     0x58  FltToS32.o [7]
  .text               ro code  0x000543b4     0x58  S32ToDbl.o [7]
  .rodata             const    0x0005440c     0x54  MMC_SD_CardMode_Drv.o [4]
  .rodata             const    0x00054460     0x54  IP_Core.o [5]
  .text               ro code  0x000544b4     0x54  Alarm.o [1]
  .text               ro code  0x00054508     0x54  Control.o [1]
  .text               ro code  0x0005455c     0x54  OS_Error.o [1]
  .text               ro code  0x000545b0     0x54  OS_GetCPUState.o [6]
  .text               ro code  0x00054604     0x54  strlen.o [7]
  .text               ro code  0x00054658     0x54  floorf.o [3]
  .rodata             const    0x000546ac     0x50  FS_Misc.o [4]
  .rodata             const    0x000546fc     0x50  FAT_FormatSD.o [4]
  .text               ro code  0x0005474c     0x50  Communication.o [1]
  .text               ro code  0x0005479c     0x50  OSISTASK.o [6]
  .text               ro code  0x000547ec     0x50  OS_EVENT_Reset.o [6]
  .text               ro code  0x0005483c     0x50  cstartup.o [7]
  .rodata             const    0x0005488c     0x4c  FAT_Write.o [4]
  .rodata             const    0x000548d8     0x4c  FS_Partition.o [4]
  .rodata             const    0x00054924     0x4c  IP_TCP_usr.o [5]
  .text               ro code  0x00054970     0x4c  Communication.o [1]
  .text               ro code  0x000549bc     0x4c  FS_Rename.o [4]
  .text               ro code  0x00054a08     0x4c  OS_Wait.o [6]
  .text               ro code  0x00054a54     0x4c  strncmp.o [3]
  .rodata             const    0x00054aa0     0x48  COM.o [1]
  .rodata             const    0x00054ae8     0x48  Finger.o [1]
  .rodata             const    0x00054b30     0x48  Key.o [1]
  .rodata             const    0x00054b78     0x48  MY_USB.o [1]
  .rodata             const    0x00054bc0     0x48  Mifare.o [1]
  .rodata             const    0x00054c08     0x48  MifareEx.o [1]
  .rodata             const    0x00054c50     0x48  Network.o [1]
  .rodata             const    0x00054c98     0x48  FAT_FormatSD.o [4]
  .rodata             const    0x00054ce0     0x48  MMC_SD_CardMode_Drv.o [4]
  .rodata             const    0x00054d28     0x48  FAT_Misc.o [4]
  .rodata             const    0x00054d70     0x48  IP_TCP.o [5]
  .rodata             const    0x00054db8     0x48  IP_TCP.o [5]
  .text               ro code  0x00054e00     0x48  FS_ErrorOut.o [4]
  .text               ro code  0x00054e48     0x48  FS_Warn.o [4]
  .text               ro code  0x00054e90     0x48  MtxWrapper.o [3]
  .text               ro code  0x00054ed8     0x48  ABImemset48.o [7]
  .text               ro code  0x00054f20     0x48  newop_0.o [3]
  .rodata             const    0x00054f68     0x44  IP_Core.o [5]
  .rodata             const    0x00054fac     0x44  FS_Dir.o [4]
  .rodata             const    0x00054ff0     0x44  USB_HW_LPC23xx.o [9]
  .rodata             const    0x00055034     0x44  IP_Q.o [5]
  .rodata             const    0x00055078     0x44  IP_UDP.o [5]
  .text               ro code  0x000550bc     0x44  iarwrite.o [8]
  .rodata             const    0x00055100     0x40  IP_NI_LPC24xx.o [5]
  .rodata             const    0x00055140     0x40  IP_ICMP.o [5]
  .text               ro code  0x00055180     0x40  OSINFO.o [6]
  .text               ro code  0x000551c0     0x40  putchar.o [3]
  .text               ro code  0x00055200     0x40  xgetmemchunk.o [3]
  .rodata             const    0x00055240     0x3c  FAT_Write.o [4]
  .rodata             const    0x0005527c     0x3c  FAT_Misc.o [4]
  .rodata             const    0x000552b8     0x3c  IP_Packet.o [5]
  .text               ro code  0x000552f4     0x3c  Alarm.o [1]
  .text               ro code  0x00055330     0x3c  COM.o [1]
  .text               ro code  0x0005536c     0x3c  FS_ConfigIO.o [1]
  .text               ro code  0x000553a8     0x3c  DblToU32.o [7]
  .rodata             const    0x000553e4     0x38  MMC_SD_CardMode_Drv.o [4]
  .rodata             const    0x0005541c     0x38  FS_Partition.o [4]
  .text               ro code  0x00055454     0x38  printf.o [3]
  .text               ro code  0x0005548c     0x38  DblCmpLe.o [7]
  .text               ro code  0x000554c4     0x38  DblCmpGe.o [7]
  .text               ro code  0x000554fc     0x38  cmain.o [7]
  .text               ro code  0x00055534     0x38  data_init2.o [7]
  .rodata             const    0x0005556c     0x34  FS_Misc.o [4]
  .rodata             const    0x000555a0     0x34  FS_Read.o [4]
  .rodata             const    0x000555d4     0x34  FAT_Open.o [4]
  .rodata             const    0x00055608     0x34  FAT_Misc.o [4]
  .rodata             const    0x0005563c     0x34  IP_TCP_in.o [5]
  .text               ro code  0x00055670     0x34  OSCPU1.o [6]
  .text               ro code  0x000556a4     0x34  strcat.o [3]
  .text               ro code  0x000556d8     0x34  FltToU32.o [7]
  .rodata             const    0x0005570c     0x30  IP_Core.o [5]
  .rodata             const    0x0005573c     0x30  xdint.o [3]
  .text               ro code  0x0005576c     0x30  Communication.o [1]
  .text               ro code  0x0005579c     0x30  Control.o [1]
  .text               ro code  0x000557cc     0x30  FS_FRead.o [4]
  .text               ro code  0x000557fc     0x30  FS_AssignCache.o [4]
  .text               ro code  0x0005582c     0x30  dwrite.o [8]
  .rodata             const    0x0005585c     0x2c  FS_Misc.o [4]
  .rodata             const    0x00055888     0x2c  FS_Storage.o [4]
  .rodata             const    0x000558b4     0x2c  MMC_SD_CardMode_Drv.o [4]
  .rodata             const    0x000558e0     0x2c  IP_Core.o [5]
  .rodata             const    0x0005590c     0x2c  IP_socket.o [5]
  .rodata             const    0x00055938     0x2c  IP_TCP.o [5]
  .text               ro code  0x00055964     0x2c  Alarm.o [1]
  .text               ro code  0x00055990     0x2c  Communication.o [1]
  .text               ro code  0x000559bc     0x2c  Communication.o [1]
  .text               ro code  0x000559e8     0x2c  MY_USB.o [1]
  .text               ro code  0x00055a14     0x2c  Main.o [1]
  .text               ro code  0x00055a40     0x2c  FltCmpLe.o [7]
  .text               ro code  0x00055a6c     0x2c  FltCmpGe.o [7]
  .text               ro code  0x00055a98     0x2c  DblCmpEq.o [7]
  .rodata             const    0x00055ac4     0x28  FS_Volume.o [4]
  .rodata             const    0x00055aec     0x28  IP_Core.o [5]
  .rodata             const    0x00055b14     0x28  IP_NI_LPC24xx.o [5]
  .rodata             const    0x00055b3c     0x28  IP_socket.o [5]
  .rodata             const    0x00055b64     0x28  IP_socket.o [5]
  .rodata             const    0x00055b8c     0x28  FAT_Write.o [4]
  .rodata             const    0x00055bb4     0x28  FS_LogBlock.o [4]
  .rodata             const    0x00055bdc     0x28  xfdint.o [3]
  .text               ro code  0x00055c04     0x28  Alarm.o [1]
  .text               ro code  0x00055c2c     0x28  Communication.o [1]
  .text               ro code  0x00055c54     0x28  OS_EVENT_Create.o [6]
  .text               ro code  0x00055c7c     0x28  xprout.o [3]
  .text               ro code  0x00055ca4     0x28  errno.o [3]
  .text               ro code  0x00055ccc     0x28  zero_init2.o [7]
  .rodata             const    0x00055cf4     0x24  IP_ConfigIO.o [1]
  .rodata             const    0x00055d18     0x24  IP_socket.o [5]
  .rodata             const    0x00055d3c     0x24  IP_socket.o [5]
  .rodata             const    0x00055d60     0x24  FS_LogBlock.o [4]
  .rodata             const    0x00055d84     0x24  IP_ARP.o [5]
  .rodata             const    0x00055da8     0x24  IP_TCP_subr.o [5]
  .rodata             const    0x00055dcc     0x24  IP_TCP_subr.o [5]
  .text               ro code  0x00055df0     0x24  Alarm.o [1]
  .text               ro code  0x00055e14     0x24  Buffer.o [1]
  .text               ro code  0x00055e38     0x24  Key.o [1]
  .text               ro code  0x00055e5c     0x24  OSTimeGS.o [6]
  SHT$$PREINIT_ARRAY           0x00055e80      0x0  <Block>
  SHT$$INIT_ARRAY              0x00055e80     0x24  <Block>
    .difunct          const    0x00055e80      0x4  Alarm.o [1]
    .difunct          const    0x00055e84      0x4  COM.o [1]
    .difunct          const    0x00055e88      0x4  Communication.o [1]
    .difunct          const    0x00055e8c      0x4  Control.o [1]
    .difunct          const    0x00055e90      0x4  Finger.o [1]
    .difunct          const    0x00055e94      0x4  Menu.o [1]
    .difunct          const    0x00055e98      0x4  Mifare.o [1]
    .difunct          const    0x00055e9c      0x4  MifareEx.o [1]
    .difunct          const    0x00055ea0      0x4  Network.o [1]
  .iar.init_table     const    0x00055ea4     0x2c  - Linker created -
  .rodata             const    0x00055ed0     0x20  Setting.o [1]
  .rodata             const    0x00055ef0     0x20  FS_Misc.o [4]
  .rodata             const    0x00055f10     0x20  MMC_SD_CardMode_Drv.o [4]
  .rodata             const    0x00055f30     0x20  MMC_SD_CardMode_Drv.o [4]
  .rodata             const    0x00055f50     0x20  USB_MSD_STORAGE_FS.o [9]
  .rodata             const    0x00055f70     0x20  IP_socket.o [5]
  .rodata             const    0x00055f90     0x20  IP_socket.o [5]
  .rodata             const    0x00055fb0     0x20  IP_socket.o [5]
  .rodata             const    0x00055fd0     0x20  IP_ARP.o [5]
  .rodata             const    0x00055ff0     0x20  IP_ARP.o [5]
  .rodata             const    0x00056010     0x20  IP_TCP.o [5]
  .rodata             const    0x00056030     0x20  IP_UDP.o [5]
  .text               ro code  0x00056050     0x20  COM.o [1]
  .text               ro code  0x00056070     0x20  OSCPU.o [6]
  .text               ro code  0x00056090     0x20  exit.o [8]
  .text               ro code  0x000560b0     0x20  strchr.o [7]
  .rodata             const    0x000560d0     0x1c  Menu.o [1]
  .rodata             const    0x000560ec     0x1c  Network.o [1]
  .rodata             const    0x00056108     0x1c  FS_Misc.o [4]
  .rodata             const    0x00056124     0x1c  MMC_SD_CardMode_Drv.o [4]
  .rodata             const    0x00056140     0x1c  IP_socket.o [5]
  .rodata             const    0x0005615c     0x1c  IP_TCP_subr.o [5]
  .text               ro code  0x00056178     0x1c  Alarm.o [1]
  .text               ro code  0x00056194     0x1c  Alarm.o [1]
  .text               ro code  0x000561b0     0x1c  Alarm.o [1]
  .text               ro code  0x000561cc     0x1c  Buffer.o [1]
  .text               ro code  0x000561e8     0x1c  Buffer.o [1]
  .text               ro code  0x00056204     0x1c  Communication.o [1]
  .text               ro code  0x00056220     0x1c  Communication.o [1]
  .text               ro code  0x0005623c     0x1c  Control.o [1]
  .text               ro code  0x00056258     0x1c  Key.o [1]
  .text               ro code  0x00056274     0x1c  FS_GetFileSize.o [4]
  .rodata             const    0x00056290     0x18  Alarm.o [1]
  .rodata             const    0x000562a8     0x18  Communication.o [1]
  .rodata             const    0x000562c0     0x18  Communication.o [1]
  .rodata             const    0x000562d8     0x18  Menu.o [1]
  .rodata             const    0x000562f0     0x18  Menu.o [1]
  .rodata             const    0x00056308     0x18  Menu.o [1]
  .rodata             const    0x00056320     0x18  Menu.o [1]
  .rodata             const    0x00056338     0x18  Menu.o [1]
  .rodata             const    0x00056350     0x18  Menu.o [1]
  .rodata             const    0x00056368     0x18  Menu.o [1]
  .rodata             const    0x00056380     0x18  Menu.o [1]
  .rodata             const    0x00056398     0x18  Menu.o [1]
  .rodata             const    0x000563b0     0x18  Menu.o [1]
  .rodata             const    0x000563c8     0x18  Network.o [1]
  .rodata             const    0x000563e0     0x18  Personal.o [1]
  .rodata             const    0x000563f8     0x18  Personal.o [1]
  .rodata             const    0x00056410     0x18  Personal.o [1]
  .rodata             const    0x00056428     0x18  Personal.o [1]
  .rodata             const    0x00056440     0x18  Personal.o [1]
  .rodata             const    0x00056458     0x18  Setting.o [1]
  .rodata             const    0x00056470     0x18  Status.o [1]
  .rodata             const    0x00056488     0x18  View.o [1]
  .rodata             const    0x000564a0     0x18  IP_Core.o [5]
  .rodata             const    0x000564b8     0x18  IP_Core.o [5]
  .rodata             const    0x000564d0     0x18  IP_NI_LPC24xx.o [5]
  .rodata             const    0x000564e8     0x18  IP_Log.o [5]
  .rodata             const    0x00056500     0x18  IP_socket.o [5]
  .rodata             const    0x00056518     0x18  IP_socket.o [5]
  .rodata             const    0x00056530     0x18  IP_Q.o [5]
  .text               ro code  0x00056548     0x18  Alarm.o [1]
  .text               ro code  0x00056560     0x18  Alarm.o [1]
  .text               ro code  0x00056578     0x18  Alarm.o [1]
  .text               ro code  0x00056590     0x18  Alarm.o [1]
  .text               ro code  0x000565a8     0x18  Alarm.o [1]
  .text               ro code  0x000565c0     0x18  COM.o [1]
  .text               ro code  0x000565d8     0x18  COM.o [1]
  .text               ro code  0x000565f0     0x18  Communication.o [1]
  .text               ro code  0x00056608     0x18  Control.o [1]
  .text               ro code  0x00056620     0x18  cexit.o [7]
  .rodata             const    0x00056638     0x14  BackLight.o [1]
  .rodata             const    0x0005664c     0x14  Communication.o [1]
  .rodata             const    0x00056660     0x14  Communication.o [1]
  .rodata             const    0x00056674     0x14  Communication.o [1]
  .rodata             const    0x00056688     0x14  CommunicationPacket.o [1]
  .rodata             const    0x0005669c     0x14  Control.o [1]
  .rodata             const    0x000566b0     0x14  Control.o [1]
  .rodata             const    0x000566c4     0x14  DAC.o [1]
  .rodata             const    0x000566d8     0x14  FingerPacket.o [1]
  .rodata             const    0x000566ec     0x14  IP_ConfigIO.o [1]
  .rodata             const    0x00056700     0x14  LCD.o [1]
  .rodata             const    0x00056714     0x14  LED.o [1]
  .rodata             const    0x00056728     0x14  Menu.o [1]
  .rodata             const    0x0005673c     0x14  Menu.o [1]
  .rodata             const    0x00056750     0x14  Menu.o [1]
  .rodata             const    0x00056764     0x14  Menu.o [1]
  .rodata             const    0x00056778     0x14  Menu.o [1]
  .rodata             const    0x0005678c     0x14  Menu.o [1]
  .rodata             const    0x000567a0     0x14  Menu.o [1]
  .rodata             const    0x000567b4     0x14  Menu.o [1]
  .rodata             const    0x000567c8     0x14  Menu.o [1]
  .rodata             const    0x000567dc     0x14  Menu.o [1]
  .rodata             const    0x000567f0     0x14  Menu.o [1]
  .rodata             const    0x00056804     0x14  Menu.o [1]
  .rodata             const    0x00056818     0x14  Menu.o [1]
  .rodata             const    0x0005682c     0x14  Menu.o [1]
  .rodata             const    0x00056840     0x14  Menu.o [1]
  .rodata             const    0x00056854     0x14  Menu.o [1]
  .rodata             const    0x00056868     0x14  Menu.o [1]
  .rodata             const    0x0005687c     0x14  Menu.o [1]
  .rodata             const    0x00056890     0x14  Menu.o [1]
  .rodata             const    0x000568a4     0x14  Menu.o [1]
  .rodata             const    0x000568b8     0x14  Menu.o [1]
  .rodata             const    0x000568cc     0x14  Menu.o [1]
  .rodata             const    0x000568e0     0x14  Menu.o [1]
  .rodata             const    0x000568f4     0x14  Menu.o [1]
  .rodata             const    0x00056908     0x14  Menu.o [1]
  .rodata             const    0x0005691c     0x14  Menu.o [1]
  .rodata             const    0x00056930     0x14  MifarePacket.o [1]
  .rodata             const    0x00056944     0x14  Network.o [1]
  .rodata             const    0x00056958     0x14  Network.o [1]
  .rodata             const    0x0005696c     0x14  Network.o [1]
  .rodata             const    0x00056980     0x14  Network.o [1]
  .rodata             const    0x00056994     0x14  Packet.o [1]
  .rodata             const    0x000569a8     0x14  Personal.o [1]
  .rodata             const    0x000569bc     0x14  Personal.o [1]
  .rodata             const    0x000569d0     0x14  Personal.o [1]
  .rodata             const    0x000569e4     0x14  Personal.o [1]
  .rodata             const    0x000569f8     0x14  Personal.o [1]
  .rodata             const    0x00056a0c     0x14  Personal.o [1]
  .rodata             const    0x00056a20     0x14  Personal.o [1]
  .rodata             const    0x00056a34     0x14  Personal.o [1]
  .rodata             const    0x00056a48     0x14  Setting.o [1]
  .rodata             const    0x00056a5c     0x14  Setting.o [1]
  .rodata             const    0x00056a70     0x14  Setting.o [1]
  .rodata             const    0x00056a84     0x14  IP_Core.o [5]
  .rodata             const    0x00056a98     0x14  USB_MSD.o [9]
  .rodata             const    0x00056aac     0x14  IP_TCP.o [5]
  .rodata             const    0x00056ac0     0x14  IP_TCP_out.o [5]
  .text               ro code  0x00056ad4     0x14  Alarm.o [1]
  .text               ro code  0x00056ae8     0x14  Control.o [1]
  .text               ro code  0x00056afc     0x14  delop_0.o [3]
  .rodata             const    0x00056b10     0x10  BackLight.o [1]
  .rodata             const    0x00056b20     0x10  Communication.o [1]
  .rodata             const    0x00056b30     0x10  Communication.o [1]
  .rodata             const    0x00056b40     0x10  FS_ConfigIO.o [1]
  .rodata             const    0x00056b50     0x10  FS_ConfigIO.o [1]
  .rodata             const    0x00056b60     0x10  MY_USB.o [1]
  .rodata             const    0x00056b70     0x10  MY_USB.o [1]
  .rodata             const    0x00056b80     0x10  Menu.o [1]
  .rodata             const    0x00056b90     0x10  Menu.o [1]
  .rodata             const    0x00056ba0     0x10  Menu.o [1]
  .rodata             const    0x00056bb0     0x10  Menu.o [1]
  .rodata             const    0x00056bc0     0x10  Menu.o [1]
  .rodata             const    0x00056bd0     0x10  Menu.o [1]
  .rodata             const    0x00056be0     0x10  Menu.o [1]
  .rodata             const    0x00056bf0     0x10  Menu.o [1]
  .rodata             const    0x00056c00     0x10  Menu.o [1]
  .rodata             const    0x00056c10     0x10  Menu.o [1]
  .rodata             const    0x00056c20     0x10  Menu.o [1]
  .rodata             const    0x00056c30     0x10  Menu.o [1]
  .rodata             const    0x00056c40     0x10  Menu.o [1]
  .rodata             const    0x00056c50     0x10  Menu.o [1]
  .rodata             const    0x00056c60     0x10  Menu.o [1]
  .rodata             const    0x00056c70     0x10  Menu.o [1]
  .rodata             const    0x00056c80     0x10  Menu.o [1]
  .rodata             const    0x00056c90     0x10  Menu.o [1]
  .rodata             const    0x00056ca0     0x10  Menu.o [1]
  .rodata             const    0x00056cb0     0x10  Menu.o [1]
  .rodata             const    0x00056cc0     0x10  Menu.o [1]
  .rodata             const    0x00056cd0     0x10  Menu.o [1]
  .rodata             const    0x00056ce0     0x10  Menu.o [1]
  .rodata             const    0x00056cf0     0x10  Menu.o [1]
  .rodata             const    0x00056d00     0x10  Menu.o [1]
  .rodata             const    0x00056d10     0x10  Menu.o [1]
  .rodata             const    0x00056d20     0x10  Menu.o [1]
  .rodata             const    0x00056d30     0x10  Menu.o [1]
  .rodata             const    0x00056d40     0x10  Menu.o [1]
  .rodata             const    0x00056d50     0x10  Menu.o [1]
  .rodata             const    0x00056d60     0x10  Menu.o [1]
  .rodata             const    0x00056d70     0x10  Menu.o [1]
  .rodata             const    0x00056d80     0x10  Menu.o [1]
  .rodata             const    0x00056d90     0x10  Menu.o [1]
  .rodata             const    0x00056da0     0x10  Personal.o [1]
  .rodata             const    0x00056db0     0x10  Personal.o [1]
  .rodata             const    0x00056dc0     0x10  Setting.o [1]
  .rodata             const    0x00056dd0     0x10  Setting.o [1]
  .rodata             const    0x00056de0     0x10  Setting.o [1]
  .rodata             const    0x00056df0     0x10  ShowTime.o [1]
  .rodata             const    0x00056e00     0x10  IP_Core.o [5]
  .rodata             const    0x00056e10     0x10  IP_Log.o [5]
  .rodata             const    0x00056e20     0x10  FAT_Misc.o [4]
  .rodata             const    0x00056e30     0x10  IP_TCP.o [5]
  .rodata             const    0x00056e40     0x10  IP_Q.o [5]
  .rodata             const    0x00056e50     0x10  IP_TCP_timr.o [5]
  .rodata             const    0x00056e60     0x10  IP_socket2.o [5]
  .rodata             const    0x00056e70     0x10  FS_Log.o [4]
  .rodata             const    0x00056e80     0x10  IP_TCP_pcb.o [5]
  .rodata             const    0x00056e90     0x10  IP_UDPSock.o [5]
  .text               ro code  0x00056ea0     0x10  targetabi.o [3]
  .text               ro code  0x00056eb0     0x10  U32ToFlt.o [7]
  .text               ro code  0x00056ec0     0x10  xcloseall.o [3]
  .rodata             const    0x00056ed0      0xc  Beep.o [1]
  .rodata             const    0x00056edc      0xc  COM.o [1]
  .rodata             const    0x00056ee8      0xc  Communication.o [1]
  .rodata             const    0x00056ef4      0xc  Communication.o [1]
  .rodata             const    0x00056f00      0xc  Communication.o [1]
  .rodata             const    0x00056f0c      0xc  Communication.o [1]
  .rodata             const    0x00056f18      0xc  Communication.o [1]
  .rodata             const    0x00056f24      0xc  Communication.o [1]
  .rodata             const    0x00056f30      0xc  DateTime.o [1]
  .rodata             const    0x00056f3c      0xc  DateTime.o [1]
  .rodata             const    0x00056f48      0xc  MY_USB.o [1]
  .rodata             const    0x00056f54      0xc  Menu.o [1]
  .rodata             const    0x00056f60      0xc  Menu.o [1]
  .rodata             const    0x00056f6c      0xc  Menu.o [1]
  .rodata             const    0x00056f78      0xc  Menu.o [1]
  .rodata             const    0x00056f84      0xc  Menu.o [1]
  .rodata             const    0x00056f90      0xc  Menu.o [1]
  .rodata             const    0x00056f9c      0xc  Menu.o [1]
  .rodata             const    0x00056fa8      0xc  Menu.o [1]
  .rodata             const    0x00056fb4      0xc  Menu.o [1]
  .rodata             const    0x00056fc0      0xc  Menu.o [1]
  .rodata             const    0x00056fcc      0xc  Menu.o [1]
  .rodata             const    0x00056fd8      0xc  Menu.o [1]
  .rodata             const    0x00056fe4      0xc  Menu.o [1]
  .rodata             const    0x00056ff0      0xc  Menu.o [1]
  .rodata             const    0x00056ffc      0xc  Menu.o [1]
  .rodata             const    0x00057008      0xc  Menu.o [1]
  .rodata             const    0x00057014      0xc  Menu.o [1]
  .rodata             const    0x00057020      0xc  Menu.o [1]
  .rodata             const    0x0005702c      0xc  Menu.o [1]
  .rodata             const    0x00057038      0xc  Menu.o [1]
  .rodata             const    0x00057044      0xc  Menu.o [1]
  .rodata             const    0x00057050      0xc  Menu.o [1]
  .rodata             const    0x0005705c      0xc  Menu.o [1]
  .rodata             const    0x00057068      0xc  Menu.o [1]
  .rodata             const    0x00057074      0xc  Menu.o [1]
  .rodata             const    0x00057080      0xc  Personal.o [1]
  .rodata             const    0x0005708c      0xc  Personal.o [1]
  .rodata             const    0x00057098      0xc  Personal.o [1]
  .rodata             const    0x000570a4      0xc  Personal.o [1]
  .rodata             const    0x000570b0      0xc  Personal.o [1]
  .rodata             const    0x000570bc      0xc  Personal.o [1]
  .rodata             const    0x000570c8      0xc  Personal.o [1]
  .rodata             const    0x000570d4      0xc  Personal.o [1]
  .rodata             const    0x000570e0      0xc  Personal.o [1]
  .rodata             const    0x000570ec      0xc  Personal.o [1]
  .rodata             const    0x000570f8      0xc  Setting.o [1]
  .rodata             const    0x00057104      0xc  USB_MSD.o [9]
  .rodata             const    0x00057110      0xc  IP_socket2.o [5]
  .text               ro code  0x0005711c      0xc  U32ToDbl.o [7]
  .text               ro code  0x00057128      0xc  abort.o [3]
  .rodata             const    0x00057134      0x8  COM.o [1]
  .rodata             const    0x0005713c      0x8  COM.o [1]
  .rodata             const    0x00057144      0x8  COM.o [1]
  .rodata             const    0x0005714c      0x8  COM.o [1]
  .rodata             const    0x00057154      0x8  COM.o [1]
  .rodata             const    0x0005715c      0x8  COM.o [1]
  .rodata             const    0x00057164      0x8  COM.o [1]
  .rodata             const    0x0005716c      0x8  COM.o [1]
  .rodata             const    0x00057174      0x8  Communication.o [1]
  .rodata             const    0x0005717c      0x8  Communication.o [1]
  .rodata             const    0x00057184      0x8  Communication.o [1]
  .rodata             const    0x0005718c      0x8  Communication.o [1]
  .rodata             const    0x00057194      0x8  Communication.o [1]
  .rodata             const    0x0005719c      0x8  Communication.o [1]
  .rodata             const    0x000571a4      0x8  Control.o [1]
  .rodata             const    0x000571ac      0x8  Control.o [1]
  .rodata             const    0x000571b4      0x8  Control.o [1]
  .rodata             const    0x000571bc      0x8  Control.o [1]
  .rodata             const    0x000571c4      0x8  Control.o [1]
  .rodata             const    0x000571cc      0x8  Control.o [1]
  .rodata             const    0x000571d4      0x8  Control.o [1]
  .rodata             const    0x000571dc      0x8  Control.o [1]
  .rodata             const    0x000571e4      0x8  Control.o [1]
  .rodata             const    0x000571ec      0x8  Control.o [1]
  .rodata             const    0x000571f4      0x8  DateTime.o [1]
  .rodata             const    0x000571fc      0x8  DateTime.o [1]
  .rodata             const    0x00057204      0x8  DateTime.o [1]
  .rodata             const    0x0005720c      0x8  DateTime.o [1]
  .rodata             const    0x00057214      0x8  DateTime.o [1]
  .rodata             const    0x0005721c      0x8  MY_USB.o [1]
  .rodata             const    0x00057224      0x8  MY_USB.o [1]
  .rodata             const    0x0005722c      0x8  MY_USB.o [1]
  .rodata             const    0x00057234      0x8  MY_USB.o [1]
  .rodata             const    0x0005723c      0x8  Menu.o [1]
  .rodata             const    0x00057244      0x8  Menu.o [1]
  .rodata             const    0x0005724c      0x8  Menu.o [1]
  .rodata             const    0x00057254      0x8  Menu.o [1]
  .rodata             const    0x0005725c      0x8  Menu.o [1]
  .rodata             const    0x00057264      0x8  Menu.o [1]
  .rodata             const    0x0005726c      0x8  Menu.o [1]
  .rodata             const    0x00057274      0x8  Menu.o [1]
  .rodata             const    0x0005727c      0x8  Menu.o [1]
  .rodata             const    0x00057284      0x8  Menu.o [1]
  .rodata             const    0x0005728c      0x8  Menu.o [1]
  .rodata             const    0x00057294      0x8  Menu.o [1]
  .rodata             const    0x0005729c      0x8  Menu.o [1]
  .rodata             const    0x000572a4      0x8  Menu.o [1]
  .rodata             const    0x000572ac      0x8  Menu.o [1]
  .rodata             const    0x000572b4      0x8  Menu.o [1]
  .rodata             const    0x000572bc      0x8  Menu.o [1]
  .rodata             const    0x000572c4      0x8  Personal.o [1]
  .rodata             const    0x000572cc      0x8  Personal.o [1]
  .rodata             const    0x000572d4      0x8  Personal.o [1]
  .rodata             const    0x000572dc      0x8  Personal.o [1]
  .rodata             const    0x000572e4      0x8  Personal.o [1]
  .rodata             const    0x000572ec      0x8  Personal.o [1]
  .rodata             const    0x000572f4      0x8  Personal.o [1]
  .rodata             const    0x000572fc      0x8  OSINFO.o [6]
  .rodata             const    0x00057304      0x8  USB_MSD.o [9]
  .rodata             const    0x0005730c      0x8  IP_ARP.o [5]
  .rodata             const    0x00057314      0x8  IP_TCP.o [5]
  .rodata             const    0x0005731c      0x8  IP_PHY.o [5]
  .rodata             const    0x00057324      0x8  IP_socket2.o [5]
  .rodata             const    0x0005732c      0x8  IP_socket2.o [5]
  .rodata             const    0x00057334      0x8  xprintfsmall.o [3]
  .text               ro code  0x0005733c      0x8  Alarm.o [1]
  .text               ro code  0x00057344      0x8  Buffer.o [1]
  .text               ro code  0x0005734c      0x8  xpurevirtual.o [3]
  .text               ro code  0x00057354      0x8  ABImemclr4.o [7]
  .text               ro code  0x0005735c      0x8  ABImemclr.o [7]
  .text               ro code  0x00057364      0x8  exit.o [3]
  .rodata             const    0x0005736c      0x4  FS_Misc.o [4]
  .rodata             const    0x00057370      0x4  FS_Misc.o [4]
  .rodata             const    0x00057374      0x4  FS_Misc.o [4]
  .rodata             const    0x00057378      0x4  FS_Misc.o [4]
  .rodata             const    0x0005737c      0x4  FS_Misc.o [4]
  .rodata             const    0x00057380      0x4  FS_Misc.o [4]
  .rodata             const    0x00057384      0x4  FS_Misc.o [4]
  .rodata             const    0x00057388      0x4  FS_Misc.o [4]
  .rodata             const    0x0005738c      0x4  FS_Misc.o [4]
  .rodata             const    0x00057390      0x4  FS_Misc.o [4]
  .rodata             const    0x00057394      0x4  FS_Misc.o [4]
  .rodata             const    0x00057398      0x4  FS_Misc.o [4]
  .rodata             const    0x0005739c      0x4  string.o [3]
  .text               ro code  0x000573a0      0x4  Alarm.o [1]
  .text               ro code  0x000573a4      0x4  delaop_0.o [3]
  .text               ro code  0x000573a8      0x4  newaop_0.o [3]
  .text               ro code  0x000573ac      0x4  vectortrap.o [7]
  .text               ro code  0x000573b0      0x4  IntDivZer.o [7]
  .text               ro code  0x000573b4      0x4  xreturnswi.o [8]
  .rodata             const    0x000573b8      0x2  FS_Misc.o [4]
  .rodata             const    0x000573ba      0x2  FS_Misc.o [4]
  .rodata             const    0x000573bc      0x2  FS_Misc.o [4]
  Initializer bytes   ro data  0x000573be     0x7f  <for P2 s0>
                             - 0x0005743d  0x5723d

"P2", part 1 of 3:                          0x1ad8
  HEAP                         0x40000000    0xc00  <Block>
    HEAP              uninit   0x40000000    0xc00  <Block tail>
  CSTACK                       0x40000c00    0x800  <Block>
    CSTACK            uninit   0x40000c00    0x800  <Block tail>
  IRQ_STACK                    0x40001400    0x400  <Block>
    IRQ_STACK         uninit   0x40001400    0x400  <Block tail>
  .iar.dynexit                 0x40001800    0x258  <Block>
    .iar.dynexit      uninit   0x40001800      0xc  cppinit.o [3]
    .iar.dynexit      uninit   0x4000180c    0x24c  <Block tail>
  FIQ_STACK                    0x40001a58     0x80  <Block>
    FIQ_STACK         uninit   0x40001a58     0x80  <Block tail>
                             - 0x40001ad8   0x1ad8

"P2", part 2 of 3:                          0xd8d0
  .bss                zero     0x40001ad8   0x4000  IP_Config_LPC23xx.o [1]
  .bss                zero     0x40005ad8   0x2200  FS_ConfigMMC_MCI.o [1]
  .bss                zero     0x40007cd8    0xe10  Personal.o [1]
  .bss                zero     0x40008ae8    0xaf0  Personal.o [1]
  .bss                zero     0x400095d8    0x800  Network.o [1]
  .bss                zero     0x40009dd8    0x600  Communication.o [1]
  .bss                zero     0x4000a3d8    0x4b0  ShowTime.o [1]
  .bss                zero     0x4000a888    0x400  JLINKDCC_ProcessV2.o [1]
  .bss                zero     0x4000ac88    0x400  MY_USB.o [1]
  .bss                zero     0x4000b088    0x400  MY_USB.o [1]
  .bss                zero     0x4000b488    0x400  Menu.o [1]
  .bss                zero     0x4000b888    0x400  Network.o [1]
  .bss                zero     0x4000bc88    0x400  Network.o [1]
  .bss                zero     0x4000c088    0x400  Setting.o [1]
  .bss                zero     0x4000c488    0x400  Setting.o [1]
  .bss                zero     0x4000c888    0x200  BackLight.o [1]
  .bss                zero     0x4000ca88    0x200  Beep.o [1]
  .bss                zero     0x4000cc88    0x200  Network.o [1]
  .bss                zero     0x4000ce88    0x200  Network.o [1]
  .bss                zero     0x4000d088    0x200  Network.o [1]
  .bss                zero     0x4000d288    0x198  Communication.o [1]
  .bss                zero     0x4000d420    0x198  Finger.o [1]
  .bss                zero     0x4000d5b8    0x190  Key.o [1]
  .bss                zero     0x4000d748    0x18c  USB_Main.o [9]
  .bss                zero     0x4000d8d4    0x138  USB_MSD.o [9]
  .bss                zero     0x4000da0c    0x108  IP_TCP_subr.o [5]
  .bss                zero     0x4000db14     0xd4  IP_Debug.o [5]
  .bss                zero     0x4000dbe8     0xa0  Setting.o [1]
  .bss                zero     0x4000dc88     0x94  COM.o [1]
  .bss                zero     0x4000dd1c     0x94  COM.o [1]
  .bss                zero     0x4000ddb0     0x94  Communication.o [1]
  .bss                zero     0x4000de44     0x94  Communication.o [1]
  .bss                zero     0x4000ded8     0x94  Finger.o [1]
  .bss                zero     0x4000df6c     0x94  Finger.o [1]
  .bss                zero     0x4000e000     0x94  Menu.o [1]
  .bss                zero     0x4000e094     0x94  Mifare.o [1]
  .bss                zero     0x4000e128     0x94  Mifare.o [1]
  .bss                zero     0x4000e1bc     0x94  MifareEx.o [1]
  .bss                zero     0x4000e250     0x94  MifareEx.o [1]
  .bss                zero     0x4000e2e4     0x94  Network.o [1]
  .bss                zero     0x4000e378     0x94  Network.o [1]
  .bss                zero     0x4000e40c     0x8c  Control.o [1]
  .bss                zero     0x4000e498     0x8c  Menu.o [1]
  .bss                zero     0x4000e524     0x7c  IP_Core.o [5]
  .bss                zero     0x4000e5a0     0x6c  IP_ICMP.o [5]
  .bss                zero     0x4000e60c     0x5c  FS_Storage.o [4]
  .bss                zero     0x4000e668     0x54  xxwritebuffered.o [3]
  .bss                zero     0x4000e6bc     0x44  USB_MSD_STORAGE_FS.o [9]
  .bss                zero     0x4000e700     0x40  USB_OS.o [1]
  .bss                zero     0x4000e740     0x3c  IP_TCP.o [5]
  .bss                zero     0x4000e77c     0x38  BackLight.o [1]
  .bss                zero     0x4000e7b4     0x38  Beep.o [1]
  .bss                zero     0x4000e7ec     0x38  Communication.o [1]
  .bss                zero     0x4000e824     0x38  MY_USB.o [1]
  .bss                zero     0x4000e85c     0x38  Menu.o [1]
  .bss                zero     0x4000e894     0x38  Network.o [1]
  .bss                zero     0x4000e8cc     0x38  Network.o [1]
  .bss                zero     0x4000e904     0x38  Network.o [1]
  .bss                zero     0x4000e93c     0x38  Network.o [1]
  .bss                zero     0x4000e974     0x38  Network.o [1]
  .bss                zero     0x4000e9ac     0x38  Network.o [1]
  .bss                zero     0x4000e9e4     0x38  Personal.o [1]
  .bss                zero     0x4000ea1c     0x38  Personal.o [1]
  .bss                zero     0x4000ea54     0x38  Setting.o [1]
  .bss                zero     0x4000ea8c     0x38  Setting.o [1]
  .bss                zero     0x4000eac4     0x38  ShowTime.o [1]
  .bss                zero     0x4000eafc     0x28  IP_TCP_in.o [5]
  .bss                zero     0x4000eb24     0x24  Control.o [1]
  .bss                zero     0x4000eb48     0x24  IP_TCP.o [5]
  .bss                zero     0x4000eb6c     0x21  IP_NI_LPC24xx.o [5]
  .bss                zero     0x4000eb90     0x1c  Alarm.o [1]
  .bss                zero     0x4000ebac     0x1c  Alarm.o [1]
  .bss                zero     0x4000ebc8     0x1c  Alarm.o [1]
  .bss                zero     0x4000ebe4     0x14  Alarm.o [1]
  .bss                zero     0x4000ebf8     0x14  Alarm.o [1]
  .bss                zero     0x4000ec0c     0x14  COM.o [1]
  .bss                zero     0x4000ec20     0x14  Communication.o [1]
  .bss                zero     0x4000ec34     0x14  Control.o [1]
  .bss                zero     0x4000ec48     0x14  Control.o [1]
  .bss                zero     0x4000ec5c     0x14  Control.o [1]
  .bss                zero     0x4000ec70     0x14  Finger.o [1]
  .bss                zero     0x4000ec84     0x14  IP_OS.o [1]
  .bss                zero     0x4000ec98     0x14  LED.o [1]
  .bss                zero     0x4000ecac     0x14  LED.o [1]
  .bss                zero     0x4000ecc0     0x14  LED.o [1]
  .bss                zero     0x4000ecd4     0x14  LED.o [1]
  .bss                zero     0x4000ece8     0x14  LED.o [1]
  .bss                zero     0x4000ecfc     0x14  LED.o [1]
  .bss                zero     0x4000ed10     0x14  LED.o [1]
  .bss                zero     0x4000ed24     0x14  LED.o [1]
  .bss                zero     0x4000ed38     0x14  Menu.o [1]
  .bss                zero     0x4000ed4c     0x14  Menu.o [1]
  .bss                zero     0x4000ed60     0x14  Menu.o [1]
  .bss                zero     0x4000ed74     0x14  Menu.o [1]
  .bss                zero     0x4000ed88     0x14  Menu.o [1]
  .bss                zero     0x4000ed9c     0x14  Mifare.o [1]
  .bss                zero     0x4000edb0     0x14  Mifare.o [1]
  .bss                zero     0x4000edc4     0x14  MifareEx.o [1]
  .bss                zero     0x4000edd8     0x14  MifareEx.o [1]
  .bss                zero     0x4000edec     0x14  MifareEx.o [1]
  .bss                zero     0x4000ee00     0x14  MifareEx.o [1]
  .bss                zero     0x4000ee14     0x14  Personal.o [1]
  .bss                zero     0x4000ee28     0x14  Personal.o [1]
  .bss                zero     0x4000ee3c     0x14  Personal.o [1]
  .bss                zero     0x4000ee50     0x14  Personal.o [1]
  .bss                zero     0x4000ee64     0x14  Personal.o [1]
  .bss                zero     0x4000ee78     0x14  Status.o [1]
  .bss                zero     0x4000ee8c     0x14  View.o [1]
  .bss                zero     0x4000eea0     0x14  FS_Storage.o [4]
  .bss                zero     0x4000eeb4     0x14  IP_socket.o [5]
  .bss                zero     0x4000eec8     0x14  IP_Debug.o [5]
  .bss                zero     0x4000eedc     0x14  IP_Packet.o [5]
  .bss                zero     0x4000eef0     0x14  IP_UDP.o [5]
  .bss                zero     0x4000ef04     0x14  IP_TCP_pcb.o [5]
  .bss                zero     0x4000ef18     0x14  xsyslock.o [3]
  .bss                zero     0x4000ef2c     0x10  Communication.o [1]
  .bss                zero     0x4000ef3c     0x10  Control.o [1]
  .bss                zero     0x4000ef4c     0x10  Control.o [1]
  .bss                zero     0x4000ef5c     0x10  Setting.o [1]
  .bss                zero     0x4000ef6c     0x10  FS_Misc.o [4]
  .bss                zero     0x4000ef7c     0x10  FS_Core.o [4]
  .bss                zero     0x4000ef8c     0x10  MMC_SD_CardMode_Drv.o [4]
  .bss                zero     0x4000ef9c     0x10  IP_Core.o [5]
  .bss                zero     0x4000efac      0xc  Alarm.o [1]
  .bss                zero     0x4000efb8      0xc  Alarm.o [1]
  .bss                zero     0x4000efc4      0xc  Alarm.o [1]
  .bss                zero     0x4000efd0      0xc  Communication.o [1]
  .bss                zero     0x4000efdc      0xc  Communication.o [1]
  .bss                zero     0x4000efe8      0xc  Personal.o [1]
  .bss                zero     0x4000eff4      0xc  IP_socket.o [5]
  .bss                zero     0x4000f000      0x8  DAC.o [1]
  .bss                zero     0x4000f008      0x8  DAC.o [1]
  .bss                zero     0x4000f010      0x8  DAC.o [1]
  .bss                zero     0x4000f018      0x8  IP_OS.o [1]
  .bss                zero     0x4000f020      0x8  IP_OS.o [1]
  .bss                zero     0x4000f028      0x8  JLINKDCC_ProcessV2.o [1]
  .bss                zero     0x4000f030      0x8  JLINKDCC_ProcessV2.o [1]
  .bss                zero     0x4000f038      0x8  MMC_SD_CardMode_Drv.o [4]
  .bss                zero     0x4000f040      0x8  USB_HW_LPC23xx.o [9]
  .bss                zero     0x4000f048      0x8  IP_TCP.o [5]
  .bss                zero     0x4000f050      0x8  IP_TCP_pcb.o [5]
  .bss                zero     0x4000f058      0x8  errno.o [3]
  .bss                zero     0x4000f060      0x8  xxmemxmalloc.o [3]
  .bss                zero     0x4000f068      0x4  Alarm.o [1]
  .bss                zero     0x4000f06c      0x4  Alarm.o [1]
  .bss                zero     0x4000f070      0x4  BackLight.o [1]
  .bss                zero     0x4000f074      0x4  Beep.o [1]
  .bss                zero     0x4000f078      0x4  Beep.o [1]
  .bss                zero     0x4000f07c      0x4  Beep.o [1]
  .bss                zero     0x4000f080      0x4  COM.o [1]
  .bss                zero     0x4000f084      0x4  COM.o [1]
  .bss                zero     0x4000f088      0x4  COM.o [1]
  .bss                zero     0x4000f08c      0x4  COM.o [1]
  .bss                zero     0x4000f090      0x4  COM.o [1]
  .bss                zero     0x4000f094      0x4  COM.o [1]
  .bss                zero     0x4000f098      0x4  COM.o [1]
  .bss                zero     0x4000f09c      0x4  COM.o [1]
  .bss                zero     0x4000f0a0      0x4  COM.o [1]
  .bss                zero     0x4000f0a4      0x4  COM.o [1]
  .bss                zero     0x4000f0a8      0x4  Communication.o [1]
  .bss                zero     0x4000f0ac      0x4  Communication.o [1]
  .bss                zero     0x4000f0b0      0x4  Communication.o [1]
  .bss                zero     0x4000f0b4      0x4  Communication.o [1]
  .bss                zero     0x4000f0b8      0x4  Communication.o [1]
  .bss                zero     0x4000f0bc      0x4  Communication.o [1]
  .bss                zero     0x4000f0c0      0x4  Communication.o [1]
  .bss                zero     0x4000f0c4      0x4  Control.o [1]
  .bss                zero     0x4000f0c8      0x4  DAC.o [1]
  .bss                zero     0x4000f0cc      0x4  DAC.o [1]
  .bss                zero     0x4000f0d0      0x4  Device.o [1]
  .bss                zero     0x4000f0d4      0x4  FS_MMC_HW_MCI.o [1]
  .bss                zero     0x4000f0d8      0x4  FS_MMC_HW_MCI.o [1]
  .bss                zero     0x4000f0dc      0x4  Finger.o [1]
  .bss                zero     0x4000f0e0      0x4  Finger.o [1]
  .bss                zero     0x4000f0e4      0x4  Finger.o [1]
  .bss                zero     0x4000f0e8      0x4  Finger.o [1]
  .bss                zero     0x4000f0ec      0x4  Finger.o [1]
  .bss                zero     0x4000f0f0      0x4  Finger.o [1]
  .bss                zero     0x4000f0f4      0x4  Finger.o [1]
  .bss                zero     0x4000f0f8      0x4  Finger.o [1]
  .bss                zero     0x4000f0fc      0x4  Finger.o [1]
  .bss                zero     0x4000f100      0x4  Finger.o [1]
  .bss                zero     0x4000f104      0x4  Finger.o [1]
  .bss                zero     0x4000f108      0x4  Finger.o [1]
  .bss                zero     0x4000f10c      0x4  Finger.o [1]
  .bss                zero     0x4000f110      0x4  Finger.o [1]
  .bss                zero     0x4000f114      0x4  Finger.o [1]
  .bss                zero     0x4000f118      0x4  Finger.o [1]
  .bss                zero     0x4000f11c      0x4  Finger.o [1]
  .bss                zero     0x4000f120      0x4  Finger.o [1]
  .bss                zero     0x4000f124      0x4  Finger.o [1]
  .bss                zero     0x4000f128      0x4  Finger.o [1]
  .bss                zero     0x4000f12c      0x4  Finger.o [1]
  .bss                zero     0x4000f130      0x4  Finger.o [1]
  .bss                zero     0x4000f134      0x4  Finger.o [1]
  .bss                zero     0x4000f138      0x4  Finger.o [1]
  .bss                zero     0x4000f13c      0x4  Finger.o [1]
  .bss                zero     0x4000f140      0x4  Finger.o [1]
  .bss                zero     0x4000f144      0x4  Finger.o [1]
  .bss                zero     0x4000f148      0x4  Finger.o [1]
  .bss                zero     0x4000f14c      0x4  Finger.o [1]
  .bss                zero     0x4000f150      0x4  Finger.o [1]
  .bss                zero     0x4000f154      0x4  Finger.o [1]
  .bss                zero     0x4000f158      0x4  Finger.o [1]
  .bss                zero     0x4000f15c      0x4  IP_OS.o [1]
  .bss                zero     0x4000f160      0x4  JLINKDCC_ProcessV2.o [1]
  .bss                zero     0x4000f164      0x4  JLINKDCC_ProcessV2.o [1]
  .bss                zero     0x4000f168      0x4  JLINKDCC_ProcessV2.o [1]
  .bss                zero     0x4000f16c      0x4  JLINKDCC_ProcessV2.o [1]
  .bss                zero     0x4000f170      0x4  JLINKDCC_ProcessV2.o [1]
  .bss                zero     0x4000f174      0x4  JLINKDCC_ProcessV2.o [1]
  .bss                zero     0x4000f178      0x4  JLINKDCC_ProcessV2.o [1]
  .bss                zero     0x4000f17c      0x4  Key.o [1]
  .bss                zero     0x4000f180      0x4  Key.o [1]
  .bss                zero     0x4000f184      0x4  Key.o [1]
  .bss                zero     0x4000f188      0x4  Key.o [1]
  .bss                zero     0x4000f18c      0x4  Key.o [1]
  .bss                zero     0x4000f190      0x4  Key.o [1]
  .bss                zero     0x4000f194      0x4  Key.o [1]
  .bss                zero     0x4000f198      0x4  Key.o [1]
  .bss                zero     0x4000f19c      0x4  Key.o [1]
  .bss                zero     0x4000f1a0      0x4  Key.o [1]
  .bss                zero     0x4000f1a4      0x4  Key.o [1]
  .bss                zero     0x4000f1a8      0x4  Key.o [1]
  .bss                zero     0x4000f1ac      0x4  Key.o [1]
  .bss                zero     0x4000f1b0      0x4  Key.o [1]
  .bss                zero     0x4000f1b4      0x4  Key.o [1]
  .bss                zero     0x4000f1b8      0x4  Key.o [1]
  .bss                zero     0x4000f1bc      0x4  Key.o [1]
  .bss                zero     0x4000f1c0      0x4  Key.o [1]
  .bss                zero     0x4000f1c4      0x4  Key.o [1]
  .bss                zero     0x4000f1c8      0x4  Key.o [1]
  .bss                zero     0x4000f1cc      0x4  Key.o [1]
  .bss                zero     0x4000f1d0      0x4  MY_USB.o [1]
  .bss                zero     0x4000f1d4      0x4  MY_USB.o [1]
  .bss                zero     0x4000f1d8      0x4  Menu.o [1]
  .bss                zero     0x4000f1dc      0x4  Menu.o [1]
  .bss                zero     0x4000f1e0      0x4  Menu.o [1]
  .bss                zero     0x4000f1e4      0x4  Menu.o [1]
  .bss                zero     0x4000f1e8      0x4  Menu.o [1]
  .bss                zero     0x4000f1ec      0x4  Mifare.o [1]
  .bss                zero     0x4000f1f0      0x4  Mifare.o [1]
  .bss                zero     0x4000f1f4      0x4  Mifare.o [1]
  .bss                zero     0x4000f1f8      0x4  Mifare.o [1]
  .bss                zero     0x4000f1fc      0x4  Mifare.o [1]
  .bss                zero     0x4000f200      0x4  Mifare.o [1]
  .bss                zero     0x4000f204      0x4  Mifare.o [1]
  .bss                zero     0x4000f208      0x4  Mifare.o [1]
  .bss                zero     0x4000f20c      0x4  Mifare.o [1]
  .bss                zero     0x4000f210      0x4  MifareEx.o [1]
  .bss                zero     0x4000f214      0x4  MifareEx.o [1]
  .bss                zero     0x4000f218      0x4  MifareEx.o [1]
  .bss                zero     0x4000f21c      0x4  MifareEx.o [1]
  .bss                zero     0x4000f220      0x4  MifareEx.o [1]
  .bss                zero     0x4000f224      0x4  MifareEx.o [1]
  .bss                zero     0x4000f228      0x4  MifareEx.o [1]
  .bss                zero     0x4000f22c      0x4  MifareEx.o [1]
  .bss                zero     0x4000f230      0x4  MifareEx.o [1]
  .bss                zero     0x4000f234      0x4  Network.o [1]
  .bss                zero     0x4000f238      0x4  Network.o [1]
  .bss                zero     0x4000f23c      0x4  Network.o [1]
  .bss                zero     0x4000f240      0x4  Network.o [1]
  .bss                zero     0x4000f244      0x4  Network.o [1]
  .bss                zero     0x4000f248      0x4  Network.o [1]
  .bss                zero     0x4000f24c      0x4  Network.o [1]
  .bss                zero     0x4000f250      0x4  Network.o [1]
  .bss                zero     0x4000f254      0x4  Network.o [1]
  .bss                zero     0x4000f258      0x4  Network.o [1]
  .bss                zero     0x4000f25c      0x4  Network.o [1]
  .bss                zero     0x4000f260      0x4  Network.o [1]
  .bss                zero     0x4000f264      0x4  Network.o [1]
  .bss                zero     0x4000f268      0x4  Network.o [1]
  .bss                zero     0x4000f26c      0x4  Network.o [1]
  .bss                zero     0x4000f270      0x4  Network.o [1]
  .bss                zero     0x4000f274      0x4  Network.o [1]
  .bss                zero     0x4000f278      0x4  Network.o [1]
  .bss                zero     0x4000f27c      0x4  Personal.o [1]
  .bss                zero     0x4000f280      0x4  Personal.o [1]
  .bss                zero     0x4000f284      0x4  Personal.o [1]
  .bss                zero     0x4000f288      0x4  Personal.o [1]
  .bss                zero     0x4000f28c      0x4  Personal.o [1]
  .bss                zero     0x4000f290      0x4  Personal.o [1]
  .bss                zero     0x4000f294      0x4  Personal.o [1]
  .bss                zero     0x4000f298      0x4  Personal.o [1]
  .bss                zero     0x4000f29c      0x4  Personal.o [1]
  .bss                zero     0x4000f2a0      0x4  Personal.o [1]
  .bss                zero     0x4000f2a4      0x4  Personal.o [1]
  .bss                zero     0x4000f2a8      0x4  Personal.o [1]
  .bss                zero     0x4000f2ac      0x4  Personal.o [1]
  .bss                zero     0x4000f2b0      0x4  Personal.o [1]
  .bss                zero     0x4000f2b4      0x4  Personal.o [1]
  .bss                zero     0x4000f2b8      0x4  Personal.o [1]
  .bss                zero     0x4000f2bc      0x4  Personal.o [1]
  .bss                zero     0x4000f2c0      0x4  Personal.o [1]
  .bss                zero     0x4000f2c4      0x4  Personal.o [1]
  .bss                zero     0x4000f2c8      0x4  Personal.o [1]
  .bss                zero     0x4000f2cc      0x4  Personal.o [1]
  .bss                zero     0x4000f2d0      0x4  Personal.o [1]
  .bss                zero     0x4000f2d4      0x4  Personal.o [1]
  .bss                zero     0x4000f2d8      0x4  Personal.o [1]
  .bss                zero     0x4000f2dc      0x4  Personal.o [1]
  .bss                zero     0x4000f2e0      0x4  Personal.o [1]
  .bss                zero     0x4000f2e4      0x4  Personal.o [1]
  .bss                zero     0x4000f2e8      0x4  Personal.o [1]
  .bss                zero     0x4000f2ec      0x4  Setting.o [1]
  .bss                zero     0x4000f2f0      0x4  Setting.o [1]
  .bss                zero     0x4000f2f4      0x4  Setting.o [1]
  .bss                zero     0x4000f2f8      0x4  Setting.o [1]
  .bss                zero     0x4000f2fc      0x4  Sound.o [1]
  .bss                zero     0x4000f300      0x4  Sound.o [1]
  .bss                zero     0x4000f304      0x4  Sound.o [1]
  .bss                zero     0x4000f308      0x4  OSGLOBAL.o [6]
  .bss                zero     0x4000f30c      0x4  OSGLOBAL.o [6]
  .bss                zero     0x4000f310      0x4  OSGLOBAL.o [6]
  .bss                zero     0x4000f314      0x4  OSGLOBAL.o [6]
  .bss                zero     0x4000f318      0x4  OSTERM.o [6]
  .bss                zero     0x4000f31c      0x4  IP_Core.o [5]
  .bss                zero     0x4000f320      0x4  IP_Core.o [5]
  .bss                zero     0x4000f324      0x4  IP_Core.o [5]
  .bss                zero     0x4000f328      0x4  IP_TCP_timr.o [5]
  .bss                zero     0x4000f32c      0x4  IP_TCP_usr.o [5]
  .bss                zero     0x4000f330      0x4  cppinit.o [3]
  .bss                zero     0x4000f334      0x4  MtxWrapper.o [3]
  .bss                zero     0x4000f338      0x4  MtxWrapper.o [3]
  .bss                zero     0x4000f33c      0x4  MtxWrapper.o [3]
  .bss                zero     0x4000f340      0x4  MtxWrapper.o [3]
  .bss                zero     0x4000f344      0x4  new.o [3]
  .bss                zero     0x4000f348      0x4  xgetmemchunk.o [3]
  .bss                zero     0x4000f34c      0x4  iarwstd.o [8]
  .bss                zero     0x4000f350      0x2  DAC.o [1]
  .bss                zero     0x4000f352      0x2  Finger.o [1]
  .bss                zero     0x4000f354      0x2  Finger.o [1]
  .bss                zero     0x4000f356      0x2  JLINKDCC_ProcessV2.o [1]
  .bss                zero     0x4000f358      0x2  IP_TCP.o [5]
  .bss                zero     0x4000f35a      0x2  IP_UDP.o [5]
  .bss                zero     0x4000f35c      0x1  Alarm.o [1]
  .bss                zero     0x4000f35d      0x1  Alarm.o [1]
  .bss                zero     0x4000f35e      0x1  Alarm.o [1]
  .bss                zero     0x4000f35f      0x1  Alarm.o [1]
  .bss                zero     0x4000f360      0x1  BackLight.o [1]
  .bss                zero     0x4000f361      0x1  COM.o [1]
  .bss                zero     0x4000f362      0x1  COM.o [1]
  .bss                zero     0x4000f363      0x1  COM.o [1]
  .bss                zero     0x4000f364      0x1  COM.o [1]
  .bss                zero     0x4000f365      0x1  COM.o [1]
  .bss                zero     0x4000f366      0x1  Communication.o [1]
  .bss                zero     0x4000f367      0x1  Communication.o [1]
  .bss                zero     0x4000f368      0x1  Communication.o [1]
  .bss                zero     0x4000f369      0x1  Communication.o [1]
  .bss                zero     0x4000f36a      0x1  Control.o [1]
  .bss                zero     0x4000f36b      0x1  Control.o [1]
  .bss                zero     0x4000f36c      0x1  DAC.o [1]
  .bss                zero     0x4000f36d      0x1  DAC.o [1]
  .bss                zero     0x4000f36e      0x1  DAC.o [1]
  .bss                zero     0x4000f36f      0x1  FS_MMC_HW_MCI.o [1]
  .bss                zero     0x4000f370      0x1  Finger.o [1]
  .bss                zero     0x4000f371      0x1  Finger.o [1]
  .bss                zero     0x4000f372      0x1  Finger.o [1]
  .bss                zero     0x4000f373      0x1  Finger.o [1]
  .bss                zero     0x4000f374      0x1  Finger.o [1]
  .bss                zero     0x4000f375      0x1  Finger.o [1]
  .bss                zero     0x4000f376      0x1  Finger.o [1]
  .bss                zero     0x4000f377      0x1  Finger.o [1]
  .bss                zero     0x4000f378      0x1  Finger.o [1]
  .bss                zero     0x4000f379      0x1  JLINKDCC_ProcessV2.o [1]
  .bss                zero     0x4000f37a      0x1  JLINKDCC_ProcessV2.o [1]
  .bss                zero     0x4000f37b      0x1  JLINKDCC_ProcessV2.o [1]
  .bss                zero     0x4000f37c      0x1  JLINKDCC_ProcessV2.o [1]
  .bss                zero     0x4000f37d      0x1  Key.o [1]
  .bss                zero     0x4000f37e      0x1  LED.o [1]
  .bss                zero     0x4000f37f      0x1  MY_USB.o [1]
  .bss                zero     0x4000f380      0x1  MY_USB.o [1]
  .bss                zero     0x4000f381      0x1  Menu.o [1]
  .bss                zero     0x4000f382      0x1  Menu.o [1]
  .bss                zero     0x4000f383      0x1  Mifare.o [1]
  .bss                zero     0x4000f384      0x1  Mifare.o [1]
  .bss                zero     0x4000f385      0x1  Mifare.o [1]
  .bss                zero     0x4000f386      0x1  Mifare.o [1]
  .bss                zero     0x4000f387      0x1  Mifare.o [1]
  .bss                zero     0x4000f388      0x1  Mifare.o [1]
  .bss                zero     0x4000f389      0x1  MifareEx.o [1]
  .bss                zero     0x4000f38a      0x1  MifareEx.o [1]
  .bss                zero     0x4000f38b      0x1  MifareEx.o [1]
  .bss                zero     0x4000f38c      0x1  MifareEx.o [1]
  .bss                zero     0x4000f38d      0x1  MifareEx.o [1]
  .bss                zero     0x4000f38e      0x1  MifareEx.o [1]
  .bss                zero     0x4000f38f      0x1  MifareEx.o [1]
  .bss                zero     0x4000f390      0x1  Network.o [1]
  .bss                zero     0x4000f391      0x1  Network.o [1]
  .bss                zero     0x4000f392      0x1  Notify.o [1]
  .bss                zero     0x4000f393      0x1  Notify.o [1]
  .bss                zero     0x4000f394      0x1  Notify.o [1]
  .bss                zero     0x4000f395      0x1  Notify.o [1]
  .bss                zero     0x4000f396      0x1  Notify.o [1]
  .bss                zero     0x4000f397      0x1  Notify.o [1]
  .bss                zero     0x4000f398      0x1  Notify.o [1]
  .bss                zero     0x4000f399      0x1  Personal.o [1]
  .bss                zero     0x4000f39a      0x1  Personal.o [1]
  .bss                zero     0x4000f39b      0x1  Personal.o [1]
  .bss                zero     0x4000f39c      0x1  Personal.o [1]
  .bss                zero     0x4000f39d      0x1  ShowTime.o [1]
  .bss                zero     0x4000f39e      0x1  ShowTime.o [1]
  .bss                zero     0x4000f39f      0x1  Sound.o [1]
  .bss                zero     0x4000f3a0      0x1  OSGLOBAL.o [6]
  .bss                zero     0x4000f3a1      0x1  OSGLOBAL.o [6]
  .bss                zero     0x4000f3a2      0x1  OSGLOBAL.o [6]
  .bss                zero     0x4000f3a3      0x1  OSGLOBAL.o [6]
  .bss                zero     0x4000f3a4      0x1  OSGLOBAL.o [6]
  .bss                zero     0x4000f3a5      0x1  OSGLOBAL.o [6]
  .bss                zero     0x4000f3a6      0x1  OSGLOBAL.o [6]
                             - 0x4000f3a7   0xd8cf

"P2", part 3 of 3:                           0x2fd
  P2 s0                        0x4000f3a8    0x2fd  <Init block>
    .data             inited   0x4000f3a8    0x101  USB_Setup.o [9]
    .data             inited   0x4000f4ac     0xd2  IP_Core.o [5]
    .data             inited   0x4000f580     0x8c  IP_ARP.o [5]
    .data             inited   0x4000f60c     0x24  OSGLOBAL.o [6]
    .data             inited   0x4000f630     0x20  IP_TCP.o [5]
    .data             inited   0x4000f650     0x10  IP_TCP_timr.o [5]
    .data             inited   0x4000f660      0x8  DAC.o [1]
    .data             inited   0x4000f668      0x8  IP_TCP_timr.o [5]
    .data             inited   0x4000f670      0x4  DAC.o [1]
    .data             inited   0x4000f674      0x4  Key.o [1]
    .data             inited   0x4000f678      0x4  IP_Log.o [5]
    .data             inited   0x4000f67c      0x4  IP_Log.o [5]
    .data             inited   0x4000f680      0x4  USB_HW_LPC23xx.o [9]
    .data             inited   0x4000f684      0x4  FS_ErrorOut.o [4]
    .data             inited   0x4000f688      0x4  FS_Warn.o [4]
    .data             inited   0x4000f68c      0x4  FAT_Misc.o [4]
    .data             inited   0x4000f690      0x4  IP_TCP_timr.o [5]
    .data             inited   0x4000f694      0x4  cppinit.o [3]
    .data             inited   0x4000f698      0x3  FS_Core.o [4]
    .data             inited   0x4000f69c      0x2  IP_socket.o [5]
    .data             inited   0x4000f69e      0x1  Menu.o [1]
    .data             inited   0x4000f69f      0x1  ShowTime.o [1]
    .data             inited   0x4000f6a0      0x1  ShowTime.o [1]
    .data             inited   0x4000f6a1      0x1  ShowTime.o [1]
    .data             inited   0x4000f6a2      0x1  FS_Misc.o [4]
    .data             inited   0x4000f6a3      0x1  IP_UDP.o [5]
    .data             inited   0x4000f6a4      0x1  IP_UDP.o [5]
                             - 0x4000f6a5    0x2fd


*******************************************************************************
*** INIT TABLE
***

          Address     Size
          -------     ----
Zero (__iar_zero_init2)
    1 destination range, total size 0xd8cf:
          0x40001ad8  0xd8cf

Copy/packbits (__iar_packbits_init2)
    1 source range, total size 0x7f (16% of destination):
          0x000573be    0x7f
    1 destination range, total size 0x2fd:
          0x4000f3a8   0x2fd


*******************************************************************************
*** MODULE SUMMARY
***

    Module                 ro code  ro data  rw data
    ------                 -------  -------  -------
E:\Ghadir_Win_Prg\hardware\GP\Output\LPC2388\Debug_Flash\Obj: [1]
    Alarm.o                  2 172       28      172
    BSP.o                      220
    BackLight.o              1 016       36      573
    Beep.o                     796       12      580
    Buffer.o                 1 328
    COM.o                    3 168      152      361
    Communication.o         14 184      264    2 388
    CommunicationPacket.o    3 152       20
    Control.o                7 868      124      274
    DAC.o                      988       21       49
    DateTime.o               4 040       64
    Device.o                   368                 4
    DigitalData.o            1 144
    FS_ConfigIO.o               60       32
    FS_ConfigMMC_MCI.o         280             8 704
    FS_MMC_HW_MCI.o          2 536                 9
    Finger.o                 6 480       76      865
    FingerPacket.o           1 380       20
    Font.o                   1 016   53 896
    Font2.o                  1 368      912
    HResource.o                176
    Hardware.o              13 228
    IP_ConfigIO.o              588       56
    IP_Config_LPC23xx.o        288            16 384
    IP_OS.o                    712                40
    JLINKDCC_ProcessV2.o     1 436             1 074
    Key.o                    3 332       73      489
    LCD.o                    3 776       20
    LED.o                    1 972       20      161
    MResource.o                204
    MY_USB.o                   964      148    2 114
    Main.o                      44        4
    Menu.o                  32 520    1 773    1 491
    Mifare.o                 3 504       76      378
    MifareEx.o               4 308       76      419
    MifarePacket.o             884       20
    Network.o                2 140      208    6 338
    Notify.o                 2 632                 7
    OS_Error.o                  84
    Packet.o                   116       20
    Personal.o              11 476      488    6 740
    RTOSINIT_LPC2378.o       1 388
    Setting.o                3 500      176    2 352
    ShowTime.o                 648       16    1 261
    Sound.o                    668   38 488       13
    Status.o                   852       24       20
    USB_Config_LPC2378.o       352
    USB_OS.o                   312                64
    Utility.o                  860
    View.o                     684       24       20
    target.o                   888
    ------------------------------------------------
    Total:                 148 100   97 367   53 344

command line: [2]
    ------------------------------------------------
    Total:

dl4t_al_in.a: [3]
    MtxWrapper.o                72                16
    abort.o                     12
    ceil.o                     112
    cppinit.o                  264                20
    delaop_0.o                   4
    delop_0.o                   20
    errno.o                     40                 8
    exit.o                       8
    floorf.o                    84
    new.o                                          4
    newaop_0.o                   4
    newop_0.o                   72
    printf.o                    56
    putchar.o                   64
    strcat.o                    52
    string.o                 1 392        4
    strncmp.o                   76
    targetabi.o                 16
    xcloseall.o                 16
    xdint.o                    348       48
    xdnorm.o                   340
    xfdint.o                   232       40
    xfdnorm.o                  224
    xflog.o                    680
    xgetmemchunk.o              64                 4
    xlog.o                   1 168
    xprintfsmall.o           1 796        8
    xprout.o                    40
    xpurevirtual.o               8
    xsyslock.o                 188                20
    xxmemxfree.o               272
    xxmemxmalloc.o             340                 8
    xxwritebuffered.o          348                84
    ------------------------------------------------
    Total:                   8 412      100      164

fs4t_al__dn.a: [4]
    FAT_Dir.o                  924      156
    FAT_Format.o             1 980      484
    FAT_FormatSD.o           1 116      152
    FAT_Misc.o               4 124      697        4
    FAT_Move.o                 512      164
    FAT_Open.o               2 420      152
    FAT_Read.o                 796      216
    FAT_Rename.o               128
    FAT_Write.o              1 400      264
    FS_AssignCache.o            48
    FS_Core.o                  584       97       19
    FS_Dir.o                   604       68
    FS_ErrorOut.o               72        1        4
    FS_FRead.o                  48
    FS_GetFileSize.o            28
    FS_Log.o                   512       16
    FS_LogBlock.o            2 136       76
    FS_Misc.o                1 940      582       17
    FS_Partition.o             404      132
    FS_Read.o                  104       52
    FS_Rename.o                 76
    FS_Storage.o             1 260      136      112
    FS_Unmount.o               168
    FS_Volume.o                164       40
    FS_Warn.o                   72                 4
    FS_Write.o                 144      112
    FS_memcpy.o                276
    MMC_SD_CardMode_Drv.o    4 276      640       24
    ------------------------------------------------
    Total:                  26 316    4 237      184

ip4t_al__d.a: [5]
    IP_ARP.o                 1 488      227      140
    IP_Core.o                2 796      632      362
    IP_Debug.o                                   232
    IP_ICMP.o                  628      164      108
    IP_IP.o                    960      276
    IP_Log.o                 1 112       41        8
    IP_NI_LPC24xx.o          1 776      216       33
    IP_PHY.o                   756      132
    IP_Packet.o                576      200       20
    IP_Q.o                     468      108
    IP_TCP.o                 2 228      269      138
    IP_TCP_in.o              6 828      444       40
    IP_TCP_out.o             2 404      252
    IP_TCP_pcb.o             1 192       16       28
    IP_TCP_subr.o            1 112      100      264
    IP_TCP_timr.o            1 376       22       32
    IP_TCP_usr.o             1 312       76        4
    IP_TCP_zio.o               188
    IP_UDP.o                 1 732      405       24
    IP_UDPSock.o             1 424      140
    IP_socket.o              4 988      796       34
    IP_socket2.o             1 968      140
    ------------------------------------------------
    Total:                  37 312    4 656    1 467

os4t_al__d.a: [6]
    OSCPU.o                     32
    OSCPU1.o                    52
    OSCSEM.o                   448
    OSGLOBAL.o                            6       59
    OSINFO.o                    64        8
    OSISTASK.o                  80
    OSKERN.o                 2 448
    OSRSEM.o                   576
    OSTERM.o                   228                 4
    OSTIME.o                   584
    OSTimeGS.o                  36
    OS_CreateTask.o            280
    OS_CreateTaskEx.o          288
    OS_DeactivateP.o            96
    OS_DeactivateTP.o          112
    OS_EVENT_Create.o           40
    OS_EVENT_Delete.o          140
    OS_EVENT_Pulse.o           140
    OS_EVENT_Reset.o            80
    OS_EVENT_Set.o             164
    OS_EVENT_Wait.o            132
    OS_EVENT_WaitTimed.o       204
    OS_GetCPUState.o            84
    OS_Suspend.o               264
    OS_TICK_Handle.o           152
    OS_Wait.o                   76
    rtos.o                     496
    ------------------------------------------------
    Total:                   7 296       14       63

rt4t_al.a: [7]
    ABImemclr.o                  8
    ABImemclr4.o                 8
    ABImemcpy.o                212
    ABImemmove.o               212
    ABImemset.o                124
    ABImemset48.o               72
    DblAdd.o                   320
    DblCmpEq.o                  44
    DblCmpGe.o                  56
    DblCmpLe.o                  56
    DblDiv.o                   824
    DblMul.o                   504
    DblSub.o                   496
    DblToFlt.o                 172
    DblToS32.o                  96
    DblToU32.o                  60
    FltAdd.o                   164
    FltCmpGe.o                  44
    FltCmpLe.o                  44
    FltDiv.o                   456
    FltMul.o                   332
    FltSub.o                   300
    FltToDbl.o                 100
    FltToS32.o                  88
    FltToU32.o                  52
    I32DivMod.o                468
    IntDivZer.o                  4
    S32ToDbl.o                  88
    S32ToFlt.o                 100
    U32ToDbl.o                  12
    U32ToFlt.o                  16
    cexit.o                     24
    cmain.o                     56
    cstartup.o                 140
    data_init2.o                56
    memchr.o                   148
    memcmp.o                   116
    packbits_init2.o           244
    strchr.o                    32
    strcmp.o                   116
    strcpy.o                   108
    strlen.o                    84
    strncpy.o                  156
    vectortrap.o                 4
    zero_init2.o                40
    ------------------------------------------------
    Total:                   6 856

shs_l.a: [8]
    dwrite.o                    48
    exit.o                      32
    iarwrite.o                  68
    iarwstd.o                  168                 4
    xreturnswi.o                 4
    ------------------------------------------------
    Total:                     320                 4

usb4t_al__d.a: [9]
    USB_HW_LPC23xx.o         1 960       69       12
    USB_MSD.o                5 772       40      312
    USB_MSD_STORAGE_FS.o       572       32       68
    USB_Main.o               3 672               396
    USB_Setup.o              3 800       42      257
    ------------------------------------------------
    Total:                  15 776      183    1 045

    Gaps                                           9
    Linker created                       44    6 860
----------------------------------------------------
    Grand Total:           250 388  106 601   63 140


*******************************************************************************
*** ENTRY LIST
***

Entry                      Address    Size  Type      Object
-----                      -------    ----  ----      ------
.iar.dynexit$$Base      0x40001800           --   Gb  - Linker created -
.iar.dynexit$$Limit     0x40001a58           --   Gb  - Linker created -
?main                   0x000554fc          Code  Gb  cmain.o [7]
Abort_Handler           0x000573ac          Code  Wk  vectortrap.o [7]
Alarm::Alarm()          0x00042ca4    0x18  Code  Gb  Alarm.o [1]
Alarm::Alarm() [internal]
                        0x00042d34    0x24  Code  Gb  Alarm.o [1]
Alarm::DisableEvents()  0x00042e74     0x4  Code  Gb  Alarm.o [1]
Alarm::FirstDailyAlarmActivity(Activity)
                        0x00042e28     0xc  Code  Gb  Alarm.o [1]
Alarm::SecondDailyAlarmActivity(Activity)
                        0x00042e34     0xc  Code  Gb  Alarm.o [1]
Alarm::SetAlarmPeriod(int)
                        0x00042e4c    0x28  Code  Gb  Alarm.o [1]
Alarm::SetFirstDailyAlarmMessage(string)
                        0x00042dd4    0x1c  Code  Gb  Alarm.o [1]
Alarm::SetFirstDailyAlarmTime(RTCTime)
                        0x00042d74    0x20  Code  Gb  Alarm.o [1]
Alarm::SetSecondDailyAlarmMessage(string)
                        0x00042df0    0x1c  Code  Gb  Alarm.o [1]
Alarm::SetSecondDailyAlarmTime(RTCTime)
                        0x00042d94    0x20  Code  Gb  Alarm.o [1]
Alarm::SetSpecialAlarmMessage(string)
                        0x00042e0c    0x1c  Code  Gb  Alarm.o [1]
Alarm::SetSpecialAlarmTime(RTCTime)
                        0x00042db4    0x20  Code  Gb  Alarm.o [1]
Alarm::SpecialAlarmActivity(Activity)
                        0x00042e40     0xc  Code  Gb  Alarm.o [1]
Alarm::StopTimers()     0x00042e78    0x1c  Code  Gb  Alarm.o [1]
Alarm::create_timers()  0x00042f9c    0x3c  Code  Gb  Alarm.o [1]
Alarm::first_daily_alarm_activity
                        0x4000f35d     0x1  Data  Gb  Alarm.o [1]
Alarm::first_daily_alarm_message
                        0x4000eb90    0x1c  Data  Gb  Alarm.o [1]
Alarm::first_daily_alarm_time
                        0x4000efac     0xc  Data  Gb  Alarm.o [1]
Alarm::initial_members()
                        0x00042e94   0x108  Code  Gb  Alarm.o [1]
Alarm::instant_plaing_counter
                        0x4000f06c     0x4  Data  Gb  Alarm.o [1]
Alarm::is_plaing        0x4000f35c     0x1  Data  Gb  Alarm.o [1]
Alarm::plaing_counter   0x4000f068     0x4  Data  Gb  Alarm.o [1]
Alarm::play_alarm()     0x00042fd8    0x50  Code  Gb  Alarm.o [1]
Alarm::second_daily_alarm_activity
                        0x4000f35e     0x1  Data  Gb  Alarm.o [1]
Alarm::second_daily_alarm_message
                        0x4000ebac    0x1c  Data  Gb  Alarm.o [1]
Alarm::second_daily_alarm_time
                        0x4000efb8     0xc  Data  Gb  Alarm.o [1]
Alarm::special_alarm_activity
                        0x4000f35f     0x1  Data  Gb  Alarm.o [1]
Alarm::special_alarm_message
                        0x4000ebc8    0x1c  Data  Gb  Alarm.o [1]
Alarm::special_alarm_time
                        0x4000efc4     0xc  Data  Gb  Alarm.o [1]
Alarm::timer_alarm      0x4000ebe4    0x14  Data  Gb  Alarm.o [1]
Alarm::timer_alarm_instant_plaing
                        0x4000ebf8    0x14  Data  Gb  Alarm.o [1]
Alarm::timer_elapse_instant_plaing_alarm()
                        0x000432b8    0x64  Code  Gb  Alarm.o [1]
Alarm::timer_elepse_alarm()
                        0x00043028   0x268  Code  Gb  Alarm.o [1]
Alarm::~Alarm()         0x00042cbc    0x1c  Code  Gb  Alarm.o [1]
Alarm::~Alarm() [internal]
                        0x00042d58    0x1c  Code  Gb  Alarm.o [1]
BSP_ETH_Init            0x00051f94    0x6c  Code  Gb  BSP.o [1]
BSP_ETH_InstallISR      0x00052000    0x2c  Code  Gb  BSP.o [1]
BSP_Init()              0x00051f50    0x44  Code  Gb  BSP.o [1]
BUFFER_Read             0x000348b8    0xa8  Code  Gb  USB_Main.o [9]
BUFFER_Write            0x00034960    0x88  Code  Gb  USB_Main.o [9]
BackLight::BackLight(FadeMode, Speed)
                        0x00048db4    0x20  Code  Gb  BackLight.o [1]
BackLight::BackLight(FadeMode, Speed) [internal]
                        0x00048df0    0x4c  Code  Gb  BackLight.o [1]
BackLight::DoFade()     0x00048f00    0x5c  Code  Gb  BackLight.o [1]
BackLight::SetFadeMode(FadeMode)
                        0x00048ef4     0xc  Code  Gb  BackLight.o [1]
BackLight::SetFadeSpeed(Speed)
                        0x00048e58    0x9c  Code  Gb  BackLight.o [1]
BackLight::SharpOff()   0x00048f80    0x24  Code  Gb  BackLight.o [1]
BackLight::SharpOn()    0x00048f5c    0x24  Code  Gb  BackLight.o [1]
BackLight::accelerate   0x4000f070     0x4  Data  Gb  BackLight.o [1]
BackLight::create_timers()
                        0x00048fec     0x4  Code  Gb  BackLight.o [1]
BackLight::fade_mode    0x4000f360     0x1  Data  Gb  BackLight.o [1]
BackLight::fade_off()   0x0004907c    0x8c  Code  Gb  BackLight.o [1]
BackLight::fade_on()    0x00048ff0    0x8c  Code  Gb  BackLight.o [1]
BackLight::initial_hardware()
                        0x00048fa4    0x28  Code  Gb  BackLight.o [1]
BackLight::initial_members()
                        0x00048fcc    0x1c  Code  Gb  BackLight.o [1]
BackLight::stack_backlight
                        0x4000c888   0x200  Data  Gb  BackLight.o [1]
BackLight::task_backlight()
                        0x0004910c    0x9c  Code  Gb  BackLight.o [1]
BackLight::tcb_backlight
                        0x4000e77c    0x38  Data  Gb  BackLight.o [1]
BackLight::~BackLight()
                        0x00048dd4    0x1c  Code  Gb  BackLight.o [1]
BackLight::~BackLight() [internal]
                        0x00048e3c    0x1c  Code  Gb  BackLight.o [1]
Beep::Beep()            0x0004bc70    0x18  Code  Gb  Beep.o [1]
Beep::Beep() [internal]
                        0x0004bca4    0x18  Code  Gb  Beep.o [1]
Beep::BeepErr()         0x0004be20    0x20  Code  Gb  Beep.o [1]
Beep::DoBeep(int)       0x0004bcc0    0x68  Code  Gb  Beep.o [1]
Beep::DoBeep(int, int)  0x0004bd9c    0x40  Code  Gb  Beep.o [1]
Beep::DoBeep(int, int, int)
                        0x0004bddc    0x44  Code  Gb  Beep.o [1]
Beep::DoBeepWithoutTask(int)
                        0x0004bd28    0x74  Code  Gb  Beep.o [1]
Beep::SetCount(int)     0x0004be9c     0xc  Code  Gb  Beep.o [1]
Beep::SetOffPeriod(int)
                        0x0004beb4     0xc  Code  Gb  Beep.o [1]
Beep::SetOnPeriod(int)  0x0004bea8     0xc  Code  Gb  Beep.o [1]
Beep::Start()           0x0004be40    0x4c  Code  Gb  Beep.o [1]
Beep::count             0x4000f074     0x4  Data  Gb  Beep.o [1]
Beep::delay_off         0x4000f07c     0x4  Data  Gb  Beep.o [1]
Beep::delay_on          0x4000f078     0x4  Data  Gb  Beep.o [1]
Beep::initial_members()
                        0x0004bec0    0x28  Code  Gb  Beep.o [1]
Beep::is_task_running(OS_TASK *)
                        0x0004bf60    0x2c  Code  Gb  Beep.o [1]
Beep::stack_beep        0x4000ca88   0x200  Data  Gb  Beep.o [1]
Beep::task_beep()       0x0004bee8    0x6c  Code  Gb  Beep.o [1]
Beep::tcb_beep          0x4000e7b4    0x38  Data  Gb  Beep.o [1]
Beep::~Beep()           0x0004bc88    0x1c  Code  Gb  Beep.o [1]
Beep::~Beep() [internal]
                        0x0004bcbc     0x4  Code  Gb  Beep.o [1]
Buffer::Buffer()        0x00046ebc    0x18  Code  Gb  Buffer.o [1]
Buffer::Buffer() [internal]
                        0x00046f0c    0x28  Code  Gb  Buffer.o [1]
Buffer::Buffer() [subobject]
                        0x00046ea4    0x18  Code  Gb  Buffer.o [1]
Buffer::Clear()         0x0004707c    0x3c  Code  Gb  Buffer.o [1]
Buffer::Delete(int)     0x00047008    0x54  Code  Gb  Buffer.o [1]
Buffer::DeleteLastCell()
                        0x0004705c    0x20  Code  Gb  Buffer.o [1]
Buffer::Fill(unsigned char *, int)
                        0x00046f38    0x28  Code  Gb  Buffer.o [1]
Buffer::Fill(unsigned char *, int, int)
                        0x00046f60    0x40  Code  Gb  Buffer.o [1]
Buffer::Fill(unsigned char, int)
                        0x00046fa0    0x68  Code  Gb  Buffer.o [1]
Buffer::GetStartAddress()
                        0x000470c0     0x8  Code  Gb  Buffer.o [1]
Buffer::GetString()     0x00047320    0x2c  Code  Gb  Buffer.o [1]
Buffer::GetString(int, int)
                        0x00047214    0x78  Code  Gb  Buffer.o [1]
Buffer::GetValue()      0x0004734c    0x24  Code  Gb  Buffer.o [1]
Buffer::GetValue(int, int)
                        0x0004728c    0x94  Code  Gb  Buffer.o [1]
Buffer::Size()          0x000470b8     0x8  Code  Gb  Buffer.o [1]
Buffer::append(unsigned char)
                        0x000471cc    0x48  Code  Gb  Buffer.o [1]
Buffer::disable_events()
                        0x000471c0     0xc  Code  Gb  Buffer.o [1]
Buffer::operator +=(string)
                        0x00047124    0x48  Code  Gb  Buffer.o [1]
Buffer::operator +=(unsigned char)
                        0x00047104    0x20  Code  Gb  Buffer.o [1]
Buffer::operator =(Buffer)
                        0x0004716c    0x54  Code  Gb  Buffer.o [1]
Buffer::operator [](int)
                        0x000470c8    0x3c  Code  Gb  Buffer.o [1]
Buffer::~Buffer()       0x00046ef0    0x1c  Code  Gb  Buffer.o [1]
Buffer::~Buffer() [internal]
                        0x00046f34     0x4  Code  Gb  Buffer.o [1]
Buffer::~Buffer() [subobject]
                        0x00046ed4    0x1c  Code  Gb  Buffer.o [1]
COM::AnalyzePermission(bool)
                        0x00038784     0xc  Code  Gb  COM.o [1]
COM::COM()              0x0003854c    0x18  Code  Gb  COM.o [1]
COM::COM() [internal]   0x000385c8    0x24  Code  Gb  COM.o [1]
COM::ClearBuffers()     0x000386c8    0x1c  Code  Gb  COM.o [1]
COM::ClearReceiveBuffer()
                        0x000386b4    0x14  Code  Gb  COM.o [1]
COM::ClearSendBuffer()  0x000386a0    0x14  Code  Gb  COM.o [1]
COM::DisableEvents()    0x000387a8    0x70  Code  Gb  COM.o [1]
COM::GetReceivedData()  0x00038770    0x14  Code  Gb  COM.o [1]
COM::GetStrATcommand(Modem_ATcommand)
                        0x00038ffc   0x104  Code  Gb  COM.o [1]
COM::Modem_Packet       0x4000f361     0x1  Data  Gb  COM.o [1]
COM::Send(Buffer *)     0x0003872c    0x44  Code  Gb  COM.o [1]
COM::Send(string)       0x000386e4    0x48  Code  Gb  COM.o [1]
COM::SetConnectModemEvent(void (*)())
                        0x00039100     0xc  Code  Gb  COM.o [1]
COM::SetPort(Baudrate, Parity, StopBits, UART_Character_Length)
                        0x00038608    0x98  Code  Gb  COM.o [1]
COM::SetReceiveByteCompleteEvent(void (*)())
                        0x0003879c     0xc  Code  Gb  COM.o [1]
COM::SetReceiveCompleteEvent(void (*)())
                        0x00038790     0xc  Code  Gb  COM.o [1]
COM::SetRemoveModemEvent(void (*)())
                        0x00039110     0xc  Code  Gb  COM.o [1]
COM::analyze_permission
                        0x4000f363     0x1  Data  Gb  COM.o [1]
COM::create_critical_tasks()
                        0x0003894c     0x4  Code  Gb  COM.o [1]
COM::create_nonecritical_tasks()
                        0x00038950     0x4  Code  Gb  COM.o [1]
COM::create_timers()    0x00038954    0x28  Code  Gb  COM.o [1]
COM::disable_interrupts()
                        0x000388fc    0x28  Code  Gb  COM.o [1]
COM::enable             0x4000f364     0x1  Data  Gb  COM.o [1]
COM::enable_interrupts()
                        0x00038924    0x28  Code  Gb  COM.o [1]
COM::ep_connect_Modem   0x4000f098     0x4  Data  Gb  COM.o [1]
COM::ep_disconnect_Modem
                        0x4000f09c     0x4  Data  Gb  COM.o [1]
COM::ep_frame_error     0x4000f094     0x4  Data  Gb  COM.o [1]
COM::ep_invalid_comm_packet_received
                        0x4000f0a4     0x4  Data  Gb  COM.o [1]
COM::ep_receive_byte_complete
                        0x4000f090     0x4  Data  Gb  COM.o [1]
COM::ep_receive_complete
                        0x4000f088     0x4  Data  Gb  COM.o [1]
COM::ep_send_byte_complete
                        0x4000f08c     0x4  Data  Gb  COM.o [1]
COM::ep_send_complete   0x4000f084     0x4  Data  Gb  COM.o [1]
COM::ep_valid_comm_packet_received
                        0x4000f0a0     0x4  Data  Gb  COM.o [1]
COM::final_initialization()
                        0x000388a4    0x4c  Code  Gb  COM.o [1]
COM::initial_critical_resources()
                        0x00038868     0x4  Code  Gb  COM.o [1]
COM::initial_hardware()
                        0x00038820    0x48  Code  Gb  COM.o [1]
COM::initial_members()  0x00038870    0x34  Code  Gb  COM.o [1]
COM::initial_statuses()
                        0x0003886c     0x4  Code  Gb  COM.o [1]
COM::internal_send()    0x000389ac    0x6c  Code  Gb  COM.o [1]
COM::last_received_byte
                        0x4000f362     0x1  Data  Gb  COM.o [1]
COM::receive_packet     0x4000dd1c    0x94  Data  Gb  COM.o [1]
COM::resume_nonecritical_tasks()
                        0x00038980     0x4  Code  Gb  COM.o [1]
COM::send_data_counter  0x4000f080     0x4  Data  Gb  COM.o [1]
COM::send_packet        0x4000dc88    0x94  Data  Gb  COM.o [1]
COM::send_receive_interrupt()
                        0x00038a18   0x4d8  Code  Gb  COM.o [1]
COM::set_enable_flag(bool)
                        0x000388f0     0xc  Code  Gb  COM.o [1]
COM::start_timers()     0x00038984    0x14  Code  Gb  COM.o [1]
COM::stop_timers()      0x00038998    0x14  Code  Gb  COM.o [1]
COM::suspend_nonecritical_tasks()
                        0x0003897c     0x4  Code  Gb  COM.o [1]
COM::timer_elapse_receive_analyze()
                        0x00038f10    0xd4  Code  Gb  COM.o [1]
COM::timer_rceive_analyze
                        0x4000ec0c    0x14  Data  Gb  COM.o [1]
COM::~COM()             0x00038564    0x1c  Code  Gb  COM.o [1]
COM::~COM() [internal]  0x000385ec    0x1c  Code  Gb  COM.o [1]
CRP                     0x000001fc     0x4  Data  Lc  Main.o [1]
CSTACK$$Base            0x40000c00           --   Gb  - Linker created -
CSTACK$$Limit           0x40001400           --   Gb  - Linker created -
Communication::BUFF     0x4000d288   0x198  Data  Gb  Communication.o [1]
Communication::Communication()
                        0x0000baa4    0x18  Code  Gb  Communication.o [1]
Communication::Communication() [internal]
                        0x0000bb20     0x4  Code  Gb  Communication.o [1]
Communication::DisablePeripheral()
                        0x0000d768    0xbc  Code  Gb  Communication.o [1]
Communication::EnablePeripheral()
                        0x0000d6a4    0xc4  Code  Gb  Communication.o [1]
Communication::FINGERID
                        0x4000f0a8     0x4  Data  Gb  Communication.o [1]
Communication::Initial()
                        0x0000bb28   0x14c  Code  Gb  Communication.o [1]
Communication::KindCode
                        0x4000f368     0x1  Data  Gb  Communication.o [1]
Communication::SendBuffTemplateFinger(unsigned char *)
                        0x0000ef48    0xa0  Code  Gb  Communication.o [1]
Communication::SendPersonRecordWithNumofFinger(unsigned long)
                        0x0000ef20    0x28  Code  Gb  Communication.o [1]
Communication::activity
                        0x4000f369     0x1  Data  Gb  Communication.o [1]
Communication::collection_end_detection()
                        0x0000df0c    0xe0  Code  Gb  Communication.o [1]
Communication::com_packet_is_available()
                        0x0000bd78    0xbc  Code  Gb  Communication.o [1]
Communication::command_ETX_fail()
                        0x0000efe8    0x40  Code  Gb  Communication.o [1]
Communication::command_ETX_finger_exist_fail()
                        0x0000f028    0x44  Code  Gb  Communication.o [1]
Communication::command_execute_fail()
                        0x0000da64    0x90  Code  Gb  Communication.o [1]
Communication::command_execute_successfully()
                        0x0000d824    0xa0  Code  Gb  Communication.o [1]
Communication::communication_type
                        0x4000f366     0x1  Data  Gb  Communication.o [1]
Communication::error_detect_on_collection()
                        0x0000e244    0xe0  Code  Gb  Communication.o [1]
Communication::from     0x4000efd0     0xc  Data  Gb  Communication.o [1]
Communication::from_dt  0x4000f0b4     0x4  Data  Gb  Communication.o [1]
Communication::get_records_count(char *, char *, int)
                        0x0000ee74    0xac  Code  Gb  Communication.o [1]
Communication::handle_received_packet()
                        0x0000be48  0x1844  Code  Gb  Communication.o [1]
Communication::indexTemplate
                        0x4000f0ac     0x4  Data  Gb  Communication.o [1]
Communication::is_busy  0x4000f367     0x1  Data  Gb  Communication.o [1]
Communication::is_file_exist(char *, char *)
                        0x0000edf4    0x80  Code  Gb  Communication.o [1]
Communication::lan_packet_is_available()
                        0x0000bc80    0xf8  Code  Gb  Communication.o [1]
Communication::receive_byte_complete_com()
                        0x0000f06c     0x4  Code  Gb  Communication.o [1]
Communication::receive_packet
                        0x4000de44    0x94  Data  Gb  Communication.o [1]
Communication::record_index
                        0x4000f0b0     0x4  Data  Gb  Communication.o [1]
Communication::sema     0x4000ef2c    0x10  Data  Gb  Communication.o [1]
Communication::send_Acknowledge_success()
                        0x0000d994    0xd0  Code  Gb  Communication.o [1]
Communication::send_busy_packet()
                        0x0000dc9c    0xd0  Code  Gb  Communication.o [1]
Communication::send_command_With_ErrFlag(COMMFlag)
                        0x0000dbc4    0xd8  Code  Gb  Communication.o [1]
Communication::send_packet
                        0x4000ddb0    0x94  Data  Gb  Communication.o [1]
Communication::send_packet_error()
                        0x0000de3c    0xd0  Code  Gb  Communication.o [1]
Communication::send_records()
                        0x0000dfec    0xc0  Code  Gb  Communication.o [1]
Communication::send_records(COMMFlag)
                        0x0000e0ac    0xc8  Code  Gb  Communication.o [1]
Communication::send_records(COMMFlag, bool)
                        0x0000e174    0xd0  Code  Gb  Communication.o [1]
Communication::send_simple_command_execute_fail()
                        0x0000daf4    0xd0  Code  Gb  Communication.o [1]
Communication::send_simple_command_execute_success()
                        0x0000d8c4    0xd0  Code  Gb  Communication.o [1]
Communication::send_time_out_packet()
                        0x0000dd6c    0xd0  Code  Gb  Communication.o [1]
Communication::send_to_media()
                        0x0000e324    0x8c  Code  Gb  Communication.o [1]
Communication::stack_fill
                        0x40009dd8   0x600  Data  Gb  Communication.o [1]
Communication::task_fill_packet_with_records(void *)
                        0x0000e424   0x9d0  Code  Gb  Communication.o [1]
Communication::tcb_fill
                        0x4000e7ec    0x38  Data  Gb  Communication.o [1]
Communication::time_out
                        0x4000ec20    0x14  Data  Gb  Communication.o [1]
Communication::timer_elapse_time_out()
                        0x0000e3b0    0x74  Code  Gb  Communication.o [1]
Communication::to       0x4000efdc     0xc  Data  Gb  Communication.o [1]
Communication::to_dt    0x4000f0b8     0x4  Data  Gb  Communication.o [1]
Communication::~Communication()
                        0x0000babc    0x1c  Code  Gb  Communication.o [1]
Communication::~Communication() [internal]
                        0x0000bb24     0x4  Code  Gb  Communication.o [1]
CommunicationPacket::AddData(void *, int)
                        0x00037db4    0x54  Code  Gb  CommunicationPacket.o [1]
CommunicationPacket::CommunicationPacket()
                        0x000378fc    0x18  Code  Gb  CommunicationPacket.o [1]
CommunicationPacket::CommunicationPacket() [internal]
                        0x00037930    0x34  Code  Gb  CommunicationPacket.o [1]
CommunicationPacket::CommunicationPacket(const CommunicationPacket&)
                        0x000565d8    0x18  Code  Gb  COM.o [1]
CommunicationPacket::CommunicationPacket(const CommunicationPacket&) [internal]
                        0x00055330    0x3c  Code  Gb  COM.o [1]
CommunicationPacket::DeleteData()
                        0x00037e08    0x1c  Code  Gb  CommunicationPacket.o [1]
CommunicationPacket::GetAcknowledgeRequestFlag()
                        0x00037e24    0x5c  Code  Gb  CommunicationPacket.o [1]
CommunicationPacket::GetCommand()
                        0x00037fac    0x18  Code  Gb  CommunicationPacket.o [1]
CommunicationPacket::GetDataLength()
                        0x0003807c    0x18  Code  Gb  CommunicationPacket.o [1]
CommunicationPacket::GetDestinationID()
                        0x00037ee4    0x64  Code  Gb  CommunicationPacket.o [1]
CommunicationPacket::GetError()
                        0x00037fc4    0x18  Code  Gb  CommunicationPacket.o [1]
CommunicationPacket::GetExtraData()
                        0x00037fdc    0xa0  Code  Gb  CommunicationPacket.o [1]
CommunicationPacket::GetFrameNumber()
                        0x00037e80    0x64  Code  Gb  CommunicationPacket.o [1]
CommunicationPacket::GetPersonInfoWithConvertFingerIDtoUserID()
                        0x0003833c   0x210  Code  Gb  CommunicationPacket.o [1]
CommunicationPacket::GetSourceID()
                        0x00037f48    0x64  Code  Gb  CommunicationPacket.o [1]
CommunicationPacket::GetStartAddressofData()
                        0x00038094    0x18  Code  Gb  CommunicationPacket.o [1]
CommunicationPacket::IsValid()
                        0x000380ac   0x100  Code  Gb  CommunicationPacket.o [1]
CommunicationPacket::Make()
                        0x000381ac   0x144  Code  Gb  CommunicationPacket.o [1]
CommunicationPacket::SetAcknowledgeRequestFlag(bool)
                        0x000379ec    0x6c  Code  Gb  CommunicationPacket.o [1]
CommunicationPacket::SetBroadCastFlag(bool)
                        0x00037980    0x6c  Code  Gb  CommunicationPacket.o [1]
CommunicationPacket::SetCommand(COMMCommand)
                        0x00037cd0    0x24  Code  Gb  CommunicationPacket.o [1]
CommunicationPacket::SetDestinationID(unsigned short)
                        0x00037c6c    0x64  Code  Gb  CommunicationPacket.o [1]
CommunicationPacket::SetExtraData(unsigned long)
                        0x00037d18    0x9c  Code  Gb  CommunicationPacket.o [1]
CommunicationPacket::SetFlag(COMMFlag)
                        0x00037cf4    0x24  Code  Gb  CommunicationPacket.o [1]
CommunicationPacket::SetFrameNumber(unsigned short)
                        0x00037c08    0x64  Code  Gb  CommunicationPacket.o [1]
CommunicationPacket::SetLastPacketFlag(bool)
                        0x00037ac4    0x6c  Code  Gb  CommunicationPacket.o [1]
CommunicationPacket::SetMultiPacketFlag(bool)
                        0x00037a58    0x6c  Code  Gb  CommunicationPacket.o [1]
CommunicationPacket::SetResponseRequest(bool)
                        0x00037b9c    0x6c  Code  Gb  CommunicationPacket.o [1]
CommunicationPacket::SetSecurityFlag(bool)
                        0x00037b30    0x6c  Code  Gb  CommunicationPacket.o [1]
CommunicationPacket::calculate_checksum(int, int)
                        0x000382f0    0x4c  Code  Gb  CommunicationPacket.o [1]
CommunicationPacket::operator =(const CommunicationPacket&)
                        0x0005576c    0x30  Code  Gb  Communication.o [1]
CommunicationPacket::~CommunicationPacket()
                        0x00037914    0x1c  Code  Gb  CommunicationPacket.o [1]
CommunicationPacket::~CommunicationPacket() [internal]
                        0x00037964    0x1c  Code  Gb  CommunicationPacket.o [1]
ConfigurePLL            0x0004a9f0   0x188  Code  Gb  target.o [1]
Control::Check_SendByteTrue(char)
                        0x0001c1a4    0x6c  Code  Gb  Control.o [1]
Control::Control()      0x0001bf88    0x18  Code  Gb  Control.o [1]
Control::Control() [internal]
                        0x0001bfe8     0x4  Code  Gb  Control.o [1]
Control::E_any_key_press()
                        0x0001cfdc   0x31c  Code  Gb  Control.o [1]
Control::E_exit_menu()  0x0001d2f8   0x28c  Code  Gb  Control.o [1]
Control::E_invalid_finger_present()
                        0x0001cf70    0x6c  Code  Gb  Control.o [1]
Control::E_lan_cable_connect()
                        0x0001d584    0x40  Code  Gb  Control.o [1]
Control::E_lan_cable_disconnect()
                        0x0001d5c4    0x40  Code  Gb  Control.o [1]
Control::E_mifare_card_present()
                        0x0001cd3c    0xfc  Code  Gb  Control.o [1]
Control::E_mifare_card_present_ex()
                        0x0001ce38    0xfc  Code  Gb  Control.o [1]
Control::E_modem_cable_connect()
                        0x0001d604    0x40  Code  Gb  Control.o [1]
Control::E_modem_cable_disconnect()
                        0x0001d644    0x40  Code  Gb  Control.o [1]
Control::E_timeout_input()
                        0x0001d8a4    0x74  Code  Gb  Control.o [1]
Control::E_traffic_save(TrafficInformation *)
                        0x0001d704   0x1a0  Code  Gb  Control.o [1]
Control::E_usb_cable_connect()
                        0x0001d684    0x40  Code  Gb  Control.o [1]
Control::E_usb_cable_disconnect()
                        0x0001d6c4    0x40  Code  Gb  Control.o [1]
Control::E_valid_finger_present(unsigned long)
                        0x0001cf38    0x38  Code  Gb  Control.o [1]
Control::Initial()      0x0001bff0   0x190  Code  Gb  Control.o [1]
Control::InitialDevices()
                        0x0001c6a0    0x44  Code  Gb  Control.o [1]
Control::Make_PacketSpi(char *)
                        0x0001c190    0x14  Code  Gb  Control.o [1]
Control::ReadDeviceID()
                        0x0001c448    0xf4  Code  Gb  Control.o [1]
Control::Run()          0x0001c180    0x10  Code  Gb  Control.o [1]
Control::Send_unique(char *, char *)
                        0x0001c53c   0x13c  Code  Gb  Control.o [1]
Control::ceck_unique()  0x0001c210   0x238  Code  Gb  Control.o [1]
Control::current_pre_card
                        0x4000f36b     0x1  Data  Gb  Control.o [1]
Control::enter_menu     0x4000f36a     0x1  Data  Gb  Control.o [1]
Control::get_appropriate_message(ControlMessage, Language)
                        0x0001dcb8    0xc0  Code  Gb  Control.o [1]
Control::initial_alarm()
                        0x0001cbec    0x28  Code  Gb  Control.o [1]
Control::initial_backlight()
                        0x0001c798    0x34  Code  Gb  Control.o [1]
Control::initial_beep()
                        0x0001cc14    0x28  Code  Gb  Control.o [1]
Control::initial_com()  0x0001c8a8    0x48  Code  Gb  Control.o [1]
Control::initial_communication()
                        0x0001cb44    0x28  Code  Gb  Control.o [1]
Control::initial_dac()  0x0001c718    0x28  Code  Gb  Control.o [1]
Control::initial_file_system()
                        0x0001c9b8    0x2c  Code  Gb  Control.o [1]
Control::initial_finger()
                        0x0001c804    0x40  Code  Gb  Control.o [1]
Control::initial_hardware()
                        0x0001c6e4    0x34  Code  Gb  Control.o [1]
Control::initial_key()  0x0001c938    0x34  Code  Gb  Control.o [1]
Control::initial_lcd()  0x0001c7cc    0x38  Code  Gb  Control.o [1]
Control::initial_led()  0x0001c770    0x28  Code  Gb  Control.o [1]
Control::initial_log()  0x0001cac0     0x4  Code  Gb  Control.o [1]
Control::initial_menu()
                        0x0001cac4    0x38  Code  Gb  Control.o [1]
Control::initial_mifare()
                        0x0001c84c    0x54  Code  Gb  Control.o [1]
Control::initial_network()
                        0x0001c8f0    0x48  Code  Gb  Control.o [1]
Control::initial_notify()
                        0x0001cb6c    0x2c  Code  Gb  Control.o [1]
Control::initial_os()   0x0001c9e4    0x84  Code  Gb  Control.o [1]
Control::initial_personal()
                        0x0001cafc    0x40  Code  Gb  Control.o [1]
Control::initial_rtc()  0x0001c740    0x30  Code  Gb  Control.o [1]
Control::initial_settings()
                        0x0001ca68    0x58  Code  Gb  Control.o [1]
Control::initial_sound()
                        0x0001cbe8     0x4  Code  Gb  Control.o [1]
Control::initial_status()
                        0x0001cbc0    0x28  Code  Gb  Control.o [1]
Control::initial_unique()
                        0x0001c678    0x28  Code  Gb  Control.o [1]
Control::initial_usb()  0x0001c970    0x48  Code  Gb  Control.o [1]
Control::initial_view()
                        0x0001cb98    0x28  Code  Gb  Control.o [1]
Control::keypad_data    0x4000e40c    0x8c  Data  Gb  Control.o [1]
Control::last_traffic   0x4000eb24    0x24  Data  Gb  Control.o [1]
Control::last_traffic_count
                        0x4000f0c4     0x4  Data  Gb  Control.o [1]
Control::post_initial()
                        0x0001cc4c    0xdc  Code  Gb  Control.o [1]
Control::pre_initial()  0x0001cc3c    0x10  Code  Gb  Control.o [1]
Control::show_last_traffics()
                        0x0001da20   0x298  Code  Gb  Control.o [1]
Control::timer_elapse_key()
                        0x0001d918    0x88  Code  Gb  Control.o [1]
Control::timer_elapse_precard()
                        0x0001d9a0    0x74  Code  Gb  Control.o [1]
Control::timer_elapse_special()
                        0x0001da14     0xc  Code  Gb  Control.o [1]
Control::timer_key      0x4000ec34    0x14  Data  Gb  Control.o [1]
Control::timer_precard  0x4000ec48    0x14  Data  Gb  Control.o [1]
Control::timer_special  0x4000ec5c    0x14  Data  Gb  Control.o [1]
Control::~Control()     0x0001bfa0    0x1c  Code  Gb  Control.o [1]
Control::~Control() [internal]
                        0x0001bfec     0x4  Code  Gb  Control.o [1]
DAC::BITS               0x4000f670     0x4  Data  Gb  DAC.o [1]
DAC::DAC()              0x0004b950    0x18  Code  Gb  DAC.o [1]
DAC::DAC() [internal]   0x0004b984    0x24  Code  Gb  DAC.o [1]
DAC::MAX_VOLTAGE        0x4000f660     0x8  Data  Gb  DAC.o [1]
DAC::StopWaveGeneration()
                        0x0004b9c4    0x34  Code  Gb  DAC.o [1]
DAC::adjust_data(unsigned short)
                        0x0004babc    0x38  Code  Gb  DAC.o [1]
DAC::adjust_voltage(float)
                        0x0004baf8    0x80  Code  Gb  DAC.o [1]
DAC::create_timers()    0x0004bab8     0x4  Code  Gb  DAC.o [1]
DAC::data               0x4000f350     0x2  Data  Gb  DAC.o [1]
DAC::hardware_timer_elapse_dac()
                        0x0004bb7c    0xd8  Code  Gb  DAC.o [1]
DAC::high_interval      0x4000f0c8     0x4  Data  Gb  DAC.o [1]
DAC::initial_hardware()
                        0x0004b9f8    0x3c  Code  Gb  DAC.o [1]
DAC::initial_members()  0x0004ba38    0x7c  Code  Gb  DAC.o [1]
DAC::low_interval       0x4000f0cc     0x4  Data  Gb  DAC.o [1]
DAC::v_instant          0x4000f010     0x8  Data  Gb  DAC.o [1]
DAC::vth                0x4000f008     0x8  Data  Gb  DAC.o [1]
DAC::vtl                0x4000f000     0x8  Data  Gb  DAC.o [1]
DAC::wave_form          0x4000f36c     0x1  Data  Gb  DAC.o [1]
DAC::wave_generate      0x4000f36e     0x1  Data  Gb  DAC.o [1]
DAC::wave_status        0x4000f36d     0x1  Data  Gb  DAC.o [1]
DAC::~DAC()             0x0004b968    0x1c  Code  Gb  DAC.o [1]
DAC::~DAC() [internal]  0x0004b9a8    0x1c  Code  Gb  DAC.o [1]
DateTime::CalculateWday(RTCTime)
                        0x00031df8   0x128  Code  Gb  DateTime.o [1]
DateTime::ConvertToMiladi(RTCTime)
                        0x00031af8   0x2f4  Code  Gb  DateTime.o [1]
DateTime::ConvertToShamsi(RTCTime)
                        0x000318e8   0x210  Code  Gb  DateTime.o [1]
DateTime::DateTime()    0x00031524    0x18  Code  Gb  DateTime.o [1]
DateTime::DateTime() [internal]
                        0x00031558     0x4  Code  Gb  DateTime.o [1]
DateTime::GetPackedDateTime(RTCTime)
                        0x00032038   0x1c8  Code  Gb  DateTime.o [1]
DateTime::GetPassedSecondes(RTCTime, RTCTime)
                        0x00031f2c    0x94  Code  Gb  DateTime.o [1]
DateTime::GetPassedSecondesUntilNow(RTCTime)
                        0x00031fc0    0x3c  Code  Gb  DateTime.o [1]
DateTime::GetRealDateTime(unsigned long)
                        0x00032200   0x2ec  Code  Gb  DateTime.o [1]
DateTime::GetShamsiDate()
                        0x000316c0    0xb8  Code  Gb  DateTime.o [1]
DateTime::GetShamsiDayName()
                        0x00031778   0x170  Code  Gb  DateTime.o [1]
DateTime::GetTime()     0x00031600    0xc0  Code  Gb  DateTime.o [1]
DateTime::GetTimeToString(RTCTime)
                        0x00031560    0xa0  Code  Gb  DateTime.o [1]
DateTime::Now()         0x00031ffc    0x3c  Code  Gb  DateTime.o [1]
DateTime::~DateTime()   0x0003153c    0x1c  Code  Gb  DateTime.o [1]
DateTime::~DateTime() [internal]
                        0x0003155c     0x4  Code  Gb  DateTime.o [1]
Device::Device() [internal]
                        0x0004ff80     0x4  Code  Gb  Device.o [1]
Device::Device() [subobject]
                        0x0004ff4c    0x18  Code  Gb  Device.o [1]
Device::Initial()       0x0004ff88    0xec  Code  Gb  Device.o [1]
Device::TypeDevice      0x4000f0d0     0x4  Data  Gb  Device.o [1]
Device::is_task_running(OS_TASK *)
                        0x00050090    0x2c  Code  Gb  Device.o [1]
Device::safe_call_handler(void (*)())
                        0x00050074    0x1c  Code  Gb  Device.o [1]
Device::~Device() [internal]
                        0x0004ff84     0x4  Code  Gb  Device.o [1]
Device::~Device() [subobject]
                        0x0004ff64    0x1c  Code  Gb  Device.o [1]
DigitalData::DigitalData()
                        0x00049998    0x18  Code  Gb  DigitalData.o [1]
DigitalData::DigitalData() [internal]
                        0x00049a04    0x1c  Code  Gb  DigitalData.o [1]
DigitalData::DigitalData(unsigned char)
                        0x000499b0    0x1c  Code  Gb  DigitalData.o [1]
DigitalData::DigitalData(unsigned char) [internal]
                        0x00049a20    0x34  Code  Gb  DigitalData.o [1]
DigitalData::DigitalData(unsigned long)
                        0x000499ec    0x18  Code  Gb  DigitalData.o [1]
DigitalData::DigitalData(unsigned long) [internal]
                        0x00049a8c    0x20  Code  Gb  DigitalData.o [1]
DigitalData::DigitalData(unsigned short)
                        0x000499cc    0x20  Code  Gb  DigitalData.o [1]
DigitalData::DigitalData(unsigned short) [internal]
                        0x00049a54    0x38  Code  Gb  DigitalData.o [1]
DigitalData::FallBit(unsigned short)
                        0x00049c70    0x2c  Code  Gb  DigitalData.o [1]
DigitalData::GetBit(unsigned short)
                        0x00049c9c    0x4c  Code  Gb  DigitalData.o [1]
DigitalData::GetByte(unsigned short)
                        0x00049ce8    0x48  Code  Gb  DigitalData.o [1]
DigitalData::GetDword()
                        0x00049d80     0x8  Code  Gb  DigitalData.o [1]
DigitalData::GetWord(unsigned short)
                        0x00049d30    0x50  Code  Gb  DigitalData.o [1]
DigitalData::RiseBit(unsigned short)
                        0x00049c44    0x2c  Code  Gb  DigitalData.o [1]
DigitalData::SetBit(unsigned short, unsigned char)
                        0x00049aac    0x60  Code  Gb  DigitalData.o [1]
DigitalData::SetByte(unsigned short, unsigned char)
                        0x00049b0c    0x6c  Code  Gb  DigitalData.o [1]
DigitalData::SetDword(unsigned long)
                        0x00049c00     0x8  Code  Gb  DigitalData.o [1]
DigitalData::SetWord(unsigned short, unsigned short)
                        0x00049b78    0x88  Code  Gb  DigitalData.o [1]
DigitalData::ToggleBit(unsigned short)
                        0x00049c08    0x3c  Code  Gb  DigitalData.o [1]
DtorRecArray            0x40001800     0xc  Data  Lc  cppinit.o [3]
FAT_SFN_API             0x00056e20    0x10  Data  Gb  FAT_Misc.o [4]
FAT_pDirEntryAPI        0x4000f68c     0x4  Data  Gb  FAT_Misc.o [4]
FIQ_Handler             0x000573ac          Code  Wk  vectortrap.o [7]
FIQ_STACK$$Base         0x40001a58           --   Gb  - Linker created -
FIQ_STACK$$Limit        0x40001ad8           --   Gb  - Linker created -
FS_AddDevice            0x00046e98     0x4  Code  Gb  FS_Storage.o [4]
FS_Alloc                0x0004dd1c    0x88  Code  Gb  FS_Core.o [4]
FS_AllocZeroed          0x0004de14    0x20  Code  Gb  FS_Core.o [4]
FS_AllocZeroedPtr       0x0004de34    0x30  Code  Gb  FS_Core.o [4]
FS_AssignMemory         0x0004de64    0x10  Code  Gb  FS_Core.o [4]
FS_ErrorOutf            0x00054e00    0x44  Code  Gb  FS_ErrorOut.o [4]
FS_FAT_AllocCluster     0x00030eac    0x38  Code  Gb  FAT_Misc.o [4]
FS_FAT_CheckBPB         0x00030b44    0xa4  Code  Gb  FAT_Misc.o [4]
FS_FAT_Close            0x00044954    0x4c  Code  Gb  FAT_Write.o [4]
FS_FAT_ClusterId2SectorNo
                        0x00030c1c    0x14  Code  Gb  FAT_Misc.o [4]
FS_FAT_CopyDirEntryInfo
                        0x000314b8    0x6c  Code  Gb  FAT_Misc.o [4]
FS_FAT_CopyShortName    0x00031390    0x9c  Code  Gb  FAT_Misc.o [4]
FS_FAT_CreateDir        0x0004a430    0xa4  Code  Gb  FAT_Dir.o [4]
FS_FAT_CreateDirEx      0x0004a148   0x1b4  Code  Gb  FAT_Dir.o [4]
FS_FAT_DeleteFileOrDir  0x0003c89c    0x80  Code  Gb  FAT_Open.o [4]
FS_FAT_FindDirEntry     0x0003142c    0x8c  Code  Gb  FAT_Misc.o [4]
FS_FAT_FindDirEntryShort
                        0x0003cb28    0x54  Code  Gb  FAT_Open.o [4]
FS_FAT_FindDirEntryShortEx
                        0x0003ca88    0xa0  Code  Gb  FAT_Open.o [4]
FS_FAT_FindEmptyDirEntry
                        0x0003c778   0x124  Code  Gb  FAT_Open.o [4]
FS_FAT_FindFreeCluster  0x00030d70    0x9c  Code  Gb  FAT_Misc.o [4]
FS_FAT_FindLastCluster  0x00030e44    0x68  Code  Gb  FAT_Misc.o [4]
FS_FAT_FindPath         0x0003cb7c    0xc4  Code  Gb  FAT_Open.o [4]
FS_FAT_FormatEx         0x0003f7e0   0x168  Code  Gb  FAT_Format.o [4]
FS_FAT_FreeClusterChain
                        0x000310a0   0x21c  Code  Gb  FAT_Misc.o [4]
FS_FAT_GetDirEntry      0x0003c64c   0x11c  Code  Gb  FAT_Open.o [4]
FS_FAT_GetFATType       0x00030be8    0x34  Code  Gb  FAT_Misc.o [4]
FS_FAT_GetFirstCluster  0x0003c604    0x24  Code  Gb  FAT_Open.o [4]
FS_FAT_GetNumAdjClustersInChain
                        0x000312c0    0x7c  Code  Gb  FAT_Misc.o [4]
FS_FAT_GotoCluster      0x00030f98   0x108  Code  Gb  FAT_Misc.o [4]
FS_FAT_GotoClusterAllocIfReq
                        0x000447b0   0x10c  Code  Gb  FAT_Write.o [4]
FS_FAT_IncDirPos        0x0003c768    0x10  Code  Gb  FAT_Open.o [4]
FS_FAT_InitDirEntryScan
                        0x0003c628    0x24  Code  Gb  FAT_Open.o [4]
FS_FAT_IsValidShortNameChar
                        0x0003133c    0x54  Code  Gb  FAT_Misc.o [4]
FS_FAT_LinkCluster      0x00030e14    0x30  Code  Gb  FAT_Misc.o [4]
FS_FAT_Make83Name       0x0003c91c   0x16c  Code  Gb  FAT_Open.o [4]
FS_FAT_MarkClusterEOC   0x00030e0c     0x8  Code  Gb  FAT_Misc.o [4]
FS_FAT_Open             0x0003cc40   0x284  Code  Gb  FAT_Open.o [4]
FS_FAT_OpenDir          0x0004a2fc    0xd0  Code  Gb  FAT_Dir.o [4]
FS_FAT_Read             0x0004c1a8   0x100  Code  Gb  FAT_Read.o [4]
FS_FAT_ReadDir          0x0004a3cc    0x60  Code  Gb  FAT_Dir.o [4]
FS_FAT_ReadFATEntry     0x00030c30   0x140  Code  Gb  FAT_Misc.o [4]
FS_FAT_Rename           0x00053464    0x80  Code  Gb  FAT_Rename.o [4]
FS_FAT_WalkCluster      0x00030f7c    0x1c  Code  Gb  FAT_Misc.o [4]
FS_FAT_WalkClusterEx    0x00030ee4    0x98  Code  Gb  FAT_Misc.o [4]
FS_FAT_Write            0x000448bc    0x98  Code  Gb  FAT_Write.o [4]
FS_FAT_WriteDirEntry83  0x0003c550    0x88  Code  Gb  FAT_Open.o [4]
FS_FAT_WriteDirEntryCluster
                        0x0003c5d8    0x2c  Code  Gb  FAT_Open.o [4]
FS_FClose               0x00041710    0x20  Code  Gb  FS_Misc.o [4]
FS_FOpen                0x00041708     0x4  Code  Gb  FS_Misc.o [4]
FS_FRead                0x000557cc    0x30  Code  Gb  FS_FRead.o [4]
FS_FSeek                0x00041730     0x4  Code  Gb  FS_Misc.o [4]
FS_FindClose            0x0004d7a0          Code  Gb  FS_Dir.o [4]
FS_FindFirstFile        0x0004d780    0x10  Code  Gb  FS_Dir.o [4]
FS_FindNextFile         0x0004d790    0x10  Code  Gb  FS_Dir.o [4]
FS_FindVolume           0x00046dc4    0x98  Code  Gb  FS_Storage.o [4]
FS_FormatSD             0x000480f0    0x14  Code  Gb  FAT_FormatSD.o [4]
FS_GetFileSize          0x0005628c     0x4  Code  Gb  FS_GetFileSize.o [4]
FS_GetMaxSectorSize     0x0004de78     0xc  Code  Gb  FS_Core.o [4]
FS_GetSectorSize        0x0003f0b4    0x48  Code  Gb  FS_LogBlock.o [4]
FS_Init                 0x00041734    0xa4  Code  Gb  FS_Misc.o [4]
FS_IsHLFormatted        0x00052b90    0x30  Code  Gb  FS_Volume.o [4]
FS_LB_FreePartSectors   0x0003f140    0x50  Code  Gb  FS_LogBlock.o [4]
FS_LB_GetDeviceInfo     0x0003f0fc    0x44  Code  Gb  FS_LogBlock.o [4]
FS_LB_GetStatus         0x0003ea00    0x20  Code  Gb  FS_LogBlock.o [4]
FS_LB_InitMedium        0x0003ea20    0x40  Code  Gb  FS_LogBlock.o [4]
FS_LB_InitMediumIfRequired
                        0x0003ea60    0x20  Code  Gb  FS_LogBlock.o [4]
FS_LB_Ioctl             0x0003f070    0x44  Code  Gb  FS_LogBlock.o [4]
FS_LB_ReadBurst         0x0003eb54   0x180  Code  Gb  FS_LogBlock.o [4]
FS_LB_ReadDevice        0x0003ea80    0xc8  Code  Gb  FS_LogBlock.o [4]
FS_LB_ReadPart          0x0003eb48     0xc  Code  Gb  FS_LogBlock.o [4]
FS_LB_WriteBurst        0x0003ecd4   0x130  Code  Gb  FS_LogBlock.o [4]
FS_LB_WriteDevice       0x0003ef24   0x13c  Code  Gb  FS_LogBlock.o [4]
FS_LB_WriteMultiple     0x0003ee04   0x11c  Code  Gb  FS_LogBlock.o [4]
FS_LB_WritePart         0x0003f064     0xc  Code  Gb  FS_LogBlock.o [4]
FS_LoadU16LE            0x0004dcdc    0x10  Code  Gb  FS_Core.o [4]
FS_LoadU32BE            0x0004dc70    0x14  Code  Gb  FS_Core.o [4]
FS_LoadU32LE            0x0004dc90    0x20  Code  Gb  FS_Core.o [4]
FS_MMC_CM_Allow4bitMode
                        0x000304cc    0x3c  Code  Gb  MMC_SD_CardMode_Drv.o [4]
FS_MMC_CardMode_Driver  0x00055f30    0x20  Data  Gb  MMC_SD_CardMode_Drv.o [4]
FS_MMC_HW_X_Delay       0x0003b9a0    0x18  Code  Gb  FS_MMC_HW_MCI.o [1]
FS_MMC_HW_X_GetMaxReadBurst
                        0x0003bba8     0xc  Code  Gb  FS_MMC_HW_MCI.o [1]
FS_MMC_HW_X_GetMaxWriteBurst
                        0x0003bbb4     0xc  Code  Gb  FS_MMC_HW_MCI.o [1]
FS_MMC_HW_X_GetResponse
                        0x0003b5e0   0x130  Code  Gb  FS_MMC_HW_MCI.o [1]
FS_MMC_HW_X_InitHW      0x0003b9b8   0x1e4  Code  Gb  FS_MMC_HW_MCI.o [1]
FS_MMC_HW_X_IsPresent   0x0003b444     0xc  Code  Gb  FS_MMC_HW_MCI.o [1]
FS_MMC_HW_X_IsWriteProtected
                        0x0003b450     0xc  Code  Gb  FS_MMC_HW_MCI.o [1]
FS_MMC_HW_X_ReadData    0x0003b714   0x164  Code  Gb  FS_MMC_HW_MCI.o [1]
FS_MMC_HW_X_SendCmd     0x0003b470   0x168  Code  Gb  FS_MMC_HW_MCI.o [1]
FS_MMC_HW_X_SetHWBlockLen
                        0x0003b378    0x18  Code  Gb  FS_MMC_HW_MCI.o [1]
FS_MMC_HW_X_SetHWNumBlocks
                        0x0003b374     0x4  Code  Gb  FS_MMC_HW_MCI.o [1]
FS_MMC_HW_X_SetMaxSpeed
                        0x0003b390    0xb4  Code  Gb  FS_MMC_HW_MCI.o [1]
FS_MMC_HW_X_SetReadDataTimeOut
                        0x0003b460    0x10  Code  Gb  FS_MMC_HW_MCI.o [1]
FS_MMC_HW_X_SetResponseTimeOut
                        0x0003b45c     0x4  Code  Gb  FS_MMC_HW_MCI.o [1]
FS_MMC_HW_X_WriteData   0x0003b878   0x118  Code  Gb  FS_MMC_HW_MCI.o [1]
FS_MkDir                0x0004d77c     0x4  Code  Gb  FS_Dir.o [4]
FS_NumBytesAllocated    0x4000ef84     0x4  Data  Gb  FS_Core.o [4]
FS_PrintfSafe           0x0004ea48   0x164  Code  Gb  FS_Log.o [4]
FS_Read                 0x00053dc8     0x4  Code  Gb  FS_Read.o [4]
FS_Remove               0x0004170c     0x4  Code  Gb  FS_Misc.o [4]
FS_Rename               0x000549bc    0x4c  Code  Gb  FS_Rename.o [4]
FS_STORAGE_Counters     0x4000eea0    0x14  Data  Gb  FS_Storage.o [4]
FS_STORAGE_Init         0x0004dcec    0x30  Code  Gb  FS_Core.o [4]
FS_StoreU16LE           0x0004dcd4     0x8  Code  Gb  FS_Core.o [4]
FS_StoreU32LE           0x0004dcb0    0x10  Code  Gb  FS_Core.o [4]
FS_TryAlloc             0x0004dda4    0x6c  Code  Gb  FS_Core.o [4]
FS_Warnf                0x00054e48    0x44  Code  Gb  FS_Warn.o [4]
FS_Write                0x00053128     0x4  Code  Gb  FS_Write.o [4]
FS_WriteUpdateDir       0x000417dc    0x10  Code  Gb  FS_Misc.o [4]
FS_X_AddDevices         0x00051134    0x38  Code  Gb  FS_ConfigMMC_MCI.o [1]
FS_X_ErrorOut           0x0005538c    0x1c  Code  Gb  FS_ConfigIO.o [1]
FS_X_GetTimeDate        0x0005116c    0xe0  Code  Gb  FS_ConfigMMC_MCI.o [1]
FS_X_Panic              0x0005536c     0x4  Code  Gb  FS_ConfigIO.o [1]
FS_X_Warn               0x00055370    0x1c  Code  Gb  FS_ConfigIO.o [1]
FS__AddDevice           0x00046bf8    0xcc  Code  Gb  FS_Storage.o [4]
FS__AddPhysDevice       0x00046bc0    0x38  Code  Gb  FS_Storage.o [4]
FS__AllocFileHandle     0x000412f8    0x8c  Code  Gb  FS_Misc.o [4]
FS__AllocFileObj        0x00041398    0x78  Code  Gb  FS_Misc.o [4]
FS__AllocSectorBuffer   0x00041098    0x64  Code  Gb  FS_Misc.o [4]
FS__AutoMount           0x00052b1c    0x48  Code  Gb  FS_Volume.o [4]
FS__CACHE_CommandDeviceNL
                        0x000557fc    0x30  Code  Gb  FS_AssignCache.o [4]
FS__DivideU32Up         0x0004dc40     0xc  Code  Gb  FS_Core.o [4]
FS__FAT_Move            0x0004ebac   0x200  Code  Gb  FAT_Move.o [4]
FS__FClose              0x00041460    0x38  Code  Gb  FS_Misc.o [4]
FS__FCloseNL            0x00041428    0x38  Code  Gb  FS_Misc.o [4]
FS__FOpen               0x00041684    0x84  Code  Gb  FS_Misc.o [4]
FS__FOpenEx             0x000415f0    0x94  Code  Gb  FS_Misc.o [4]
FS__FSeek               0x00041498    0x74  Code  Gb  FS_Misc.o [4]
FS__FindFirstFile       0x0004d678    0x60  Code  Gb  FS_Dir.o [4]
FS__FindFirstFileEx     0x0004d58c    0xec  Code  Gb  FS_Dir.o [4]
FS__FindNextFile        0x0004d6d8    0xa0  Code  Gb  FS_Dir.o [4]
FS__FindVolume          0x00046d08    0xbc  Code  Gb  FS_Storage.o [4]
FS__FirstVolume         0x4000e610    0x58  Data  Gb  FS_Storage.o [4]
FS__FormatLow           0x00046a18    0x34  Code  Gb  FS_Storage.o [4]
FS__FreeFileHandle      0x00041384    0x14  Code  Gb  FS_Misc.o [4]
FS__FreeFileObj         0x00041410    0x18  Code  Gb  FS_Misc.o [4]
FS__FreeSectorBuffer    0x000410fc    0x40  Code  Gb  FS_Misc.o [4]
FS__GetDeviceInfo       0x00046b84    0x3c  Code  Gb  FS_Storage.o [4]
FS__GetFileSize         0x00056274    0x18  Code  Gb  FS_GetFileSize.o [4]
FS__GetMediaStartSecEx  0x0004fab4   0x108  Code  Gb  FS_Partition.o [4]
FS__GetVolumeStatus     0x00046b54    0x30  Code  Gb  FS_Storage.o [4]
FS__IoCtlNL             0x000469b8    0x60  Code  Gb  FS_Storage.o [4]
FS__IsInited            0x4000f69a     0x1  Data  Gb  FS_Core.o [4]
FS__IsLLFormatted       0x00046cc4    0x44  Code  Gb  FS_Storage.o [4]
FS__LocatePartition     0x0004fbbc    0x8c  Code  Gb  FS_Partition.o [4]
FS__MaxSectorSize       0x4000f698     0x2  Data  Gb  FS_Core.o [4]
FS__MkDir               0x0004d550    0x3c  Code  Gb  FS_Dir.o [4]
FS__NumSectorBuffers    0x4000ef70     0x4  Data  Gb  FS_Misc.o [4]
FS__NumVolumes          0x4000e60c     0x4  Data  Gb  FS_Storage.o [4]
FS__OpenEx              0x00041550    0xa0  Code  Gb  FS_Misc.o [4]
FS__Read                0x00053d64    0x64  Code  Gb  FS_Read.o [4]
FS__ReadSector          0x00046a88    0x3c  Code  Gb  FS_Storage.o [4]
FS__ReadSectors         0x00046b0c    0x48  Code  Gb  FS_Storage.o [4]
FS__Remove              0x0004150c    0x44  Code  Gb  FS_Misc.o [4]
FS__SB_Clean            0x000411c4     0x4  Code  Gb  FS_Misc.o [4]
FS__SB_Create           0x00041148    0x64  Code  Gb  FS_Misc.o [4]
FS__SB_Delete           0x000411ac    0x18  Code  Gb  FS_Misc.o [4]
FS__SB_Flush            0x0004113c     0xc  Code  Gb  FS_Misc.o [4]
FS__SB_MarkDirty        0x000411c8     0xc  Code  Gb  FS_Misc.o [4]
FS__SB_MarkNotDirty     0x00041230     0xc  Code  Gb  FS_Misc.o [4]
FS__SB_MarkValid        0x00041214    0x1c  Code  Gb  FS_Misc.o [4]
FS__SB_Read             0x0004123c    0x58  Code  Gb  FS_Misc.o [4]
FS__SB_SetSector        0x000411d4    0x40  Code  Gb  FS_Misc.o [4]
FS__SB_Write            0x00041294    0x64  Code  Gb  FS_Misc.o [4]
FS__SD_Format           0x0004802c    0xc4  Code  Gb  FAT_FormatSD.o [4]
FS__UnmountForcedNL     0x00052928    0xa4  Code  Gb  FS_Unmount.o [4]
FS__UnmountLL           0x00046e5c    0x3c  Code  Gb  FS_Storage.o [4]
FS__UpdateDirAfterWrite
                        0x4000f6a2     0x1  Data  Gb  FS_Misc.o [4]
FS__Write               0x0005309c    0x8c  Code  Gb  FS_Write.o [4]
FS__WriteSector         0x00046a4c    0x3c  Code  Gb  FS_Storage.o [4]
FS__WriteSectors        0x00046ac4    0x48  Code  Gb  FS_Storage.o [4]
FS__pFirstFileObj       0x4000ef78     0x4  Data  Gb  FS_Misc.o [4]
FS__pFirstFilehandle    0x4000ef74     0x4  Data  Gb  FS_Misc.o [4]
FS__paSectorBuffer      0x4000ef6c     0x4  Data  Gb  FS_Misc.o [4]
FS__strchr              0x0004dc4c    0x24  Code  Gb  FS_Core.o [4]
FS_memcpy               0x0005158c   0x114  Code  Gb  FS_memcpy.o [4]
Finger::AddTemplate(unsigned long)
                        0x000266ac    0x20  Code  Gb  Finger.o [1]
Finger::AddTemplateRepet(unsigned long)
                        0x000266cc    0x20  Code  Gb  Finger.o [1]
Finger::AnalyzePermission(bool)
                        0x0002662c     0xc  Code  Gb  Finger.o [1]
Finger::AppendFingerTemplate(unsigned char *, unsigned short)
                        0x00027c14    0x60  Code  Gb  Finger.o [1]
Finger::BuffPack        0x4000d420   0x198  Data  Gb  Finger.o [1]
Finger::CancelCommand()
                        0x00026738    0x10  Code  Gb  Finger.o [1]
Finger::Data_Ok         0x4000f372     0x1  Data  Gb  Finger.o [1]
Finger::DeleteAllTemplates()
                        0x00026724    0x14  Code  Gb  Finger.o [1]
Finger::DeleteTemplates(unsigned long)
                        0x00026708    0x1c  Code  Gb  Finger.o [1]
Finger::DisableEvents()
                        0x00026840    0xe8  Code  Gb  Finger.o [1]
Finger::EnrollByScan()  0x00026690    0x1c  Code  Gb  Finger.o [1]
Finger::Finger()        0x000264c0    0x18  Code  Gb  Finger.o [1]
Finger::Finger() [internal]
                        0x00026540    0x24  Code  Gb  Finger.o [1]
Finger::Finger_ID       0x4000f354     0x2  Data  Gb  Finger.o [1]
Finger::FreeScanMode(Power)
                        0x0002664c    0x44  Code  Gb  Finger.o [1]
Finger::GetNumOfTemplate(unsigned long)
                        0x00027d88    0x1c  Code  Gb  Finger.o [1]
Finger::GetTemplate(unsigned long, unsigned short)
                        0x00027da4    0x6c  Code  Gb  Finger.o [1]
Finger::IndexPack       0x4000f0dc     0x4  Data  Gb  Finger.o [1]
Finger::NumPack         0x4000f352     0x2  Data  Gb  Finger.o [1]
Finger::RecieveTemplate
                        0x4000f371     0x1  Data  Gb  Finger.o [1]
Finger::ResetModule()   0x00026638    0x14  Code  Gb  Finger.o [1]
Finger::SendEnrollFinger()
                        0x00027c74    0x50  Code  Gb  Finger.o [1]
Finger::SendFingerTemplate()
                        0x00027cc4    0xc4  Code  Gb  Finger.o [1]
Finger::SendTemplate    0x4000f370     0x1  Data  Gb  Finger.o [1]
Finger::SetCancelSuccessEvent(void (*)())
                        0x00026758     0xc  Code  Gb  Finger.o [1]
Finger::SetDeleteAllTemplateFailEvent(void (*)())
                        0x00026824     0xc  Code  Gb  Finger.o [1]
Finger::SetDeleteAllTemplateSuccessEvent(void (*)())
                        0x00026818     0xc  Code  Gb  Finger.o [1]
Finger::SetDeleteTemplateFailEvent(void (*)())
                        0x0002680c     0xc  Code  Gb  Finger.o [1]
Finger::SetDeleteTemplateSuccessEvent(void (*)())
                        0x00026800     0xc  Code  Gb  Finger.o [1]
Finger::SetETXFingerExistEvent(void (*)())
                        0x000267d8     0xc  Code  Gb  Finger.o [1]
Finger::SetETXSuccessEvent(void (*)())
                        0x000267b8     0xc  Code  Gb  Finger.o [1]
Finger::SetETXfailEvent(void (*)())
                        0x000267c8     0xc  Code  Gb  Finger.o [1]
Finger::SetEnrollFailEvent(void (*)())
                        0x00026794     0xc  Code  Gb  Finger.o [1]
Finger::SetEnrollRepetitiveEvent(void (*)())
                        0x000267a0     0xc  Code  Gb  Finger.o [1]
Finger::SetEnrollSuccessEvent(void (*)(unsigned long))
                        0x00026748     0xc  Code  Gb  Finger.o [1]
Finger::SetErrRecieveFinger(void (*)())
                        0x00026768     0xc  Code  Gb  Finger.o [1]
Finger::SetFirstTemplateScanSuccessEvent(void (*)())
                        0x00026788     0xc  Code  Gb  Finger.o [1]
Finger::SetIdentifyFailEvent(void (*)())
                        0x000267f4     0xc  Code  Gb  Finger.o [1]
Finger::SetIdentifySuccessEvent(void (*)(unsigned long))
                        0x00026778     0xc  Code  Gb  Finger.o [1]
Finger::SetPort(Baudrate, Parity, StopBits, UART_Character_Length)
                        0x00026580    0xac  Code  Gb  Finger.o [1]
Finger::SetReceiveByteCompleteEvent(void (*)())
                        0x00026830     0xc  Code  Gb  Finger.o [1]
Finger::SetVerifyFailEvent(void (*)())
                        0x000267e8     0xc  Code  Gb  Finger.o [1]
Finger::SetVerifySuccessEvent(void (*)())
                        0x000267ac     0xc  Code  Gb  Finger.o [1]
Finger::VerifyByScan(unsigned long)
                        0x000266ec    0x1c  Code  Gb  Finger.o [1]
Finger::analyze_permission
                        0x4000f374     0x1  Data  Gb  Finger.o [1]
Finger::analyze_receive_packet()
                        0x000272cc   0x67c  Code  Gb  Finger.o [1]
Finger::create_critical_tasks()
                        0x00026aec     0x4  Code  Gb  Finger.o [1]
Finger::create_nonecritical_tasks()
                        0x00026af0     0x4  Code  Gb  Finger.o [1]
Finger::create_timers()
                        0x00026af4    0x2c  Code  Gb  Finger.o [1]
Finger::disable_interrupts()
                        0x00026a9c    0x28  Code  Gb  Finger.o [1]
Finger::enable          0x4000f377     0x1  Data  Gb  Finger.o [1]
Finger::enable_interrupts()
                        0x00026ac4    0x28  Code  Gb  Finger.o [1]
Finger::ep_ETX_Finger_Exist
                        0x4000f124     0x4  Data  Gb  Finger.o [1]
Finger::ep_ETX_fail     0x4000f120     0x4  Data  Gb  Finger.o [1]
Finger::ep_ETX_success  0x4000f11c     0x4  Data  Gb  Finger.o [1]
Finger::ep_Err_Recieve_Finger
                        0x4000f104     0x4  Data  Gb  Finger.o [1]
Finger::ep_cancel_success
                        0x4000f100     0x4  Data  Gb  Finger.o [1]
Finger::ep_delete_all_template_fail
                        0x4000f140     0x4  Data  Gb  Finger.o [1]
Finger::ep_delete_all_template_success
                        0x4000f13c     0x4  Data  Gb  Finger.o [1]
Finger::ep_delete_by_scan_fail
                        0x4000f130     0x4  Data  Gb  Finger.o [1]
Finger::ep_delete_by_scan_success
                        0x4000f12c     0x4  Data  Gb  Finger.o [1]
Finger::ep_delete_template_fail
                        0x4000f138     0x4  Data  Gb  Finger.o [1]
Finger::ep_delete_template_success
                        0x4000f134     0x4  Data  Gb  Finger.o [1]
Finger::ep_enroll_fail  0x4000f10c     0x4  Data  Gb  Finger.o [1]
Finger::ep_enroll_success
                        0x4000f0e8     0x4  Data  Gb  Finger.o [1]
Finger::ep_first_template_scan_success
                        0x4000f108     0x4  Data  Gb  Finger.o [1]
Finger::ep_frame_error  0x4000f150     0x4  Data  Gb  Finger.o [1]
Finger::ep_free_scan_change_fail
                        0x4000f0f4     0x4  Data  Gb  Finger.o [1]
Finger::ep_free_scan_change_success
                        0x4000f0f0     0x4  Data  Gb  Finger.o [1]
Finger::ep_free_scan_save_fail
                        0x4000f0fc     0x4  Data  Gb  Finger.o [1]
Finger::ep_free_scan_save_success
                        0x4000f0f8     0x4  Data  Gb  Finger.o [1]
Finger::ep_identify_fail
                        0x4000f128     0x4  Data  Gb  Finger.o [1]
Finger::ep_identify_success
                        0x4000f0ec     0x4  Data  Gb  Finger.o [1]
Finger::ep_receive_byte_complete
                        0x4000f14c     0x4  Data  Gb  Finger.o [1]
Finger::ep_receive_complete
                        0x4000f144     0x4  Data  Gb  Finger.o [1]
Finger::ep_send_byte_complete
                        0x4000f148     0x4  Data  Gb  Finger.o [1]
Finger::ep_verify_fail  0x4000f118     0x4  Data  Gb  Finger.o [1]
Finger::ep_verify_success
                        0x4000f114     0x4  Data  Gb  Finger.o [1]
Finger::final_initialization()
                        0x00026a20    0x6c  Code  Gb  Finger.o [1]
Finger::finger_is_repetitive
                        0x4000f110     0x4  Data  Gb  Finger.o [1]
Finger::initial_critical_resources()
                        0x000269ac     0x4  Code  Gb  Finger.o [1]
Finger::initial_hardware()
                        0x00026970    0x3c  Code  Gb  Finger.o [1]
Finger::initial_members()
                        0x000269b4    0x58  Code  Gb  Finger.o [1]
Finger::initial_statuses()
                        0x000269b0     0x4  Code  Gb  Finger.o [1]
Finger::internal_send()
                        0x00026ba0    0x64  Code  Gb  Finger.o [1]
Finger::internal_send_Template()
                        0x00026c04    0x50  Code  Gb  Finger.o [1]
Finger::is_Busy         0x4000f378     0x1  Data  Gb  Finger.o [1]
Finger::last_received_byte
                        0x4000f373     0x1  Data  Gb  Finger.o [1]
Finger::receive_byte_complete_finger()
                        0x00027a30   0x1b4  Code  Gb  Finger.o [1]
Finger::receive_packet  0x4000df6c    0x94  Data  Gb  Finger.o [1]
Finger::received_command
                        0x4000f375     0x1  Data  Gb  Finger.o [1]
Finger::received_flag   0x4000f376     0x1  Data  Gb  Finger.o [1]
Finger::received_parameter
                        0x4000f0e4     0x4  Data  Gb  Finger.o [1]
Finger::resume_nonecritical_tasks()
                        0x00026b24     0x4  Code  Gb  Finger.o [1]
Finger::send_command(unsigned char)
                        0x00027948    0x24  Code  Gb  Finger.o [1]
Finger::send_command(unsigned char, unsigned long)
                        0x0002796c    0x28  Code  Gb  Finger.o [1]
Finger::send_command(unsigned char, unsigned long, unsigned char)
                        0x00027994    0x30  Code  Gb  Finger.o [1]
Finger::send_command(unsigned char, unsigned long, unsigned long, unsigned char)
                        0x000279c4    0x6c  Code  Gb  Finger.o [1]
Finger::send_data_counter
                        0x4000f0e0     0x4  Data  Gb  Finger.o [1]
Finger::send_packet     0x4000ded8    0x94  Data  Gb  Finger.o [1]
Finger::send_receive_interrupt()
                        0x00026c5c   0x668  Code  Gb  Finger.o [1]
Finger::set_enable_flag(bool)
                        0x00026a8c     0xc  Code  Gb  Finger.o [1]
Finger::startEnrollTemplate(unsigned long)
                        0x00027be4    0x30  Code  Gb  Finger.o [1]
Finger::start_timeout()
                        0x00026b28    0x14  Code  Gb  Finger.o [1]
Finger::start_timers()  0x00026b98     0x4  Code  Gb  Finger.o [1]
Finger::stop_timers()   0x00026b9c     0x4  Code  Gb  Finger.o [1]
Finger::suspend_nonecritical_tasks()
                        0x00026b20     0x4  Code  Gb  Finger.o [1]
Finger::timer_elapse_timout()
                        0x00026b40    0x54  Code  Gb  Finger.o [1]
Finger::timer_timout    0x4000ec70    0x14  Data  Gb  Finger.o [1]
Finger::~Finger()       0x000264d8    0x1c  Code  Gb  Finger.o [1]
Finger::~Finger() [internal]
                        0x00026564    0x1c  Code  Gb  Finger.o [1]
FingerPacket::FingerPacket()
                        0x0004547c    0x18  Code  Gb  FingerPacket.o [1]
FingerPacket::FingerPacket() [internal]
                        0x000454b0    0x34  Code  Gb  FingerPacket.o [1]
FingerPacket::GetCommand()
                        0x00045854    0x18  Code  Gb  FingerPacket.o [1]
FingerPacket::GetError()
                        0x00045890    0x18  Code  Gb  FingerPacket.o [1]
FingerPacket::GetParameter()
                        0x000455dc    0xa0  Code  Gb  FingerPacket.o [1]
FingerPacket::GetSize()
                        0x00045718    0xa0  Code  Gb  FingerPacket.o [1]
FingerPacket::IsValid()
                        0x00045500    0x80  Code  Gb  FingerPacket.o [1]
FingerPacket::Make()    0x00045580    0x5c  Code  Gb  FingerPacket.o [1]
FingerPacket::SetCommand(unsigned char)
                        0x0004586c    0x24  Code  Gb  FingerPacket.o [1]
FingerPacket::SetFlag(unsigned char)
                        0x000458a8    0x24  Code  Gb  FingerPacket.o [1]
FingerPacket::SetIndexOfdataPacket(unsigned short)
                        0x00045930    0x64  Code  Gb  FingerPacket.o [1]
FingerPacket::SetNumOfdataPacket(unsigned short)
                        0x000458cc    0x64  Code  Gb  FingerPacket.o [1]
FingerPacket::SetParameter(unsigned long)
                        0x0004567c    0x9c  Code  Gb  FingerPacket.o [1]
FingerPacket::SetSize(unsigned long)
                        0x000457b8    0x9c  Code  Gb  FingerPacket.o [1]
FingerPacket::calculate_checksum(int, int)
                        0x00045994    0x4c  Code  Gb  FingerPacket.o [1]
FingerPacket::~FingerPacket()
                        0x00045494    0x1c  Code  Gb  FingerPacket.o [1]
FingerPacket::~FingerPacket() [internal]
                        0x000454e4    0x1c  Code  Gb  FingerPacket.o [1]
Font2::Font2()          0x00045f40    0x18  Code  Gb  Font2.o [1]
Font2::Font2() [internal]
                        0x00045f74     0x4  Code  Gb  Font2.o [1]
Font2::GetIndex(string, int, bool)
                        0x000462d4   0x1c4  Code  Gb  Font2.o [1]
Font2::GetTableIndex(char)
                        0x00045f7c   0x150  Code  Gb  Font2.o [1]
Font2::GetTableUnicode(string, int)
                        0x000460cc   0x208  Code  Gb  Font2.o [1]
Font2::~Font2()         0x00045f58    0x1c  Code  Gb  Font2.o [1]
Font2::~Font2() [internal]
                        0x00045f78     0x4  Code  Gb  Font2.o [1]
Font::Font()            0x000491ac    0x18  Code  Gb  Font.o [1]
Font::Font() [internal]
                        0x000491e0     0x4  Code  Gb  Font.o [1]
Font::GetFontHeight()   0x000491f8    0x48  Code  Gb  Font.o [1]
Font::GetFontLengh()    0x00049240    0x48  Code  Gb  Font.o [1]
Font::GetIconLenght(int)
                        0x00049288    0x8c  Code  Gb  Font.o [1]
Font::GetIconStart(int)
                        0x00049314    0x80  Code  Gb  Font.o [1]
Font::GetStartLogoArray()
                        0x000493a0    0x10  Code  Gb  Font.o [1]
Font::Get_LanguageNum()
                        0x0004959c     0x8  Code  Gb  Font.o [1]
Font::NumberRepresentation(Language)
                        0x000491e8     0x8  Code  Gb  Font.o [1]
Font::SetSize(Size)     0x000491f0     0x8  Code  Gb  Font.o [1]
Font::find_internal_address_in_table(unsigned char *, int)
                        0x00049548    0x54  Code  Gb  Font.o [1]
Font::find_table(char)  0x000493b0   0x198  Code  Gb  Font.o [1]
Font::~Font()           0x000491c4    0x1c  Code  Gb  Font.o [1]
Font::~Font() [internal]
                        0x000491e4     0x4  Code  Gb  Font.o [1]
GPIOResetInit           0x0004a87c   0x174  Code  Gb  target.o [1]
HEAP$$Base              0x40000000           --   Gb  - Linker created -
HEAP$$Limit             0x40000c00           --   Gb  - Linker created -
Hardware::BuzzerOFF()   0x00012290    0x20  Code  Gb  Hardware.o [1]
Hardware::BuzzerON()    0x00012270    0x20  Code  Gb  Hardware.o [1]
Hardware::Com1Enable(bool)
                        0x000111b4    0x84  Code  Gb  Hardware.o [1]
Hardware::DACTimerReTrig()
                        0x0000fd2c    0x14  Code  Gb  Hardware.o [1]
Hardware::DisableKeyInterrupt()
                        0x00011d74    0x14  Code  Gb  Hardware.o [1]
Hardware::DispatchDAC(unsigned short)
                        0x0000fc6c    0x30  Code  Gb  Hardware.o [1]
Hardware::EnableKeyInterrupt()
                        0x00011d60    0x14  Code  Gb  Hardware.o [1]
Hardware::GetPhysicalKey()
                        0x00011b54   0x20c  Code  Gb  Hardware.o [1]
Hardware::Hardware()    0x0000f070    0x18  Code  Gb  Hardware.o [1]
Hardware::Hardware() [internal]
                        0x0000f0a4     0x4  Code  Gb  Hardware.o [1]
Hardware::Init()        0x0000fb30   0x118  Code  Gb  Hardware.o [1]
Hardware::InitBuzzer()  0x00012250    0x20  Code  Gb  Hardware.o [1]
Hardware::InitDAC()     0x0000fc48    0x24  Code  Gb  Hardware.o [1]
Hardware::InitKeyPins()
                        0x00011a54    0xa0  Code  Gb  Hardware.o [1]
Hardware::InitLED()     0x000121f0    0x20  Code  Gb  Hardware.o [1]
Hardware::InitPinFunction()
                        0x0000f0ac   0xa80  Code  Gb  Hardware.o [1]
Hardware::InitSPI()     0x000122b0    0xb4  Code  Gb  Hardware.o [1]
Hardware::KeyClearInterrupt()
                        0x00011d88    0x1c  Code  Gb  Hardware.o [1]
Hardware::LCDCS1(bool)  0x00011e6c    0x4c  Code  Gb  Hardware.o [1]
Hardware::LCDCS2(bool)  0x00011eb8    0x4c  Code  Gb  Hardware.o [1]
Hardware::LCDDI(bool)   0x00011f50    0x4c  Code  Gb  Hardware.o [1]
Hardware::LCDDispatchData(unsigned char)
                        0x00011e28    0x44  Code  Gb  Hardware.o [1]
Hardware::LCDEnable(bool)
                        0x00011f04    0x4c  Code  Gb  Hardware.o [1]
Hardware::LCDPortInit()
                        0x00011da4    0x84  Code  Gb  Hardware.o [1]
Hardware::LCDRW(bool)   0x00011fe8    0x4c  Code  Gb  Hardware.o [1]
Hardware::LCDReset(bool)
                        0x00011f9c    0x4c  Code  Gb  Hardware.o [1]
Hardware::ModemInitial()
                        0x00011864    0x30  Code  Gb  Hardware.o [1]
Hardware::PWMPortInit()
                        0x00012034   0x18c  Code  Gb  Hardware.o [1]
Hardware::PWMSetDutyCycle(unsigned char)
                        0x000121c0    0x30  Code  Gb  Hardware.o [1]
Hardware::RTCGetTime()  0x0001199c    0x98  Code  Gb  Hardware.o [1]
Hardware::RTCInit()     0x00011894    0x7c  Code  Gb  Hardware.o [1]
Hardware::RTCSetTime(RTCTime)
                        0x00011910    0x8c  Code  Gb  Hardware.o [1]
Hardware::RTCStart()    0x00011a34    0x20  Code  Gb  Hardware.o [1]
Hardware::SPI(char *, int)
                        0x00012364    0xb8  Code  Gb  Hardware.o [1]
Hardware::SetDACTimerEvent(void (*)())
                        0x0000fcfc    0x30  Code  Gb  Hardware.o [1]
Hardware::SetDACTimerPeriod(unsigned long)
                        0x0000fcc4    0x34  Code  Gb  Hardware.o [1]
Hardware::SetLED(unsigned char)
                        0x00012210    0x40  Code  Gb  Hardware.o [1]
Hardware::SetPinsInterrupt(void (*)())
                        0x00011af4    0x60  Code  Gb  Hardware.o [1]
Hardware::StartDACTimer()
                        0x0000fc9c    0x14  Code  Gb  Hardware.o [1]
Hardware::StopDACTimer()
                        0x0000fcb0    0x14  Code  Gb  Hardware.o [1]
Hardware::UART0CheckStatus()
                        0x000102a0    0xf4  Code  Gb  Hardware.o [1]
Hardware::UART0DisableInterrupt()
                        0x000103a8    0x14  Code  Gb  Hardware.o [1]
Hardware::UART0EnableInterrupt()
                        0x00010394    0x14  Code  Gb  Hardware.o [1]
Hardware::UART0Init()   0x0000fd40    0x60  Code  Gb  Hardware.o [1]
Hardware::UART0RecvByte()
                        0x00010254    0x18  Code  Gb  Hardware.o [1]
Hardware::UART0SendByte(unsigned char)
                        0x00010228    0x2c  Code  Gb  Hardware.o [1]
Hardware::UART0SendReady()
                        0x00010210    0x18  Code  Gb  Hardware.o [1]
Hardware::UART0SetBaud(Baudrate)
                        0x0000fda4   0x154  Code  Gb  Hardware.o [1]
Hardware::UART0SetInterrupt(void (*)(), unsigned long)
                        0x0001026c    0x34  Code  Gb  Hardware.o [1]
Hardware::UART0SetLength(UART_Character_Length)
                        0x00010030   0x118  Code  Gb  Hardware.o [1]
Hardware::UART0SetParity(Parity)
                        0x0000fef8   0x138  Code  Gb  Hardware.o [1]
Hardware::UART0SetStop(StopBits)
                        0x00010148    0xc8  Code  Gb  Hardware.o [1]
Hardware::UART1CheckStatus()
                        0x00011734   0x108  Code  Gb  Hardware.o [1]
Hardware::UART1DisableInterrupt()
                        0x00011850    0x14  Code  Gb  Hardware.o [1]
Hardware::UART1EnableInterrupt()
                        0x0001183c    0x14  Code  Gb  Hardware.o [1]
Hardware::UART1Init()   0x000110cc    0xe8  Code  Gb  Hardware.o [1]
Hardware::UART1RecvByte()
                        0x000116e8    0x18  Code  Gb  Hardware.o [1]
Hardware::UART1SendByte(unsigned char)
                        0x000116bc    0x2c  Code  Gb  Hardware.o [1]
Hardware::UART1SendReady()
                        0x000116a4    0x18  Code  Gb  Hardware.o [1]
Hardware::UART1SetBaud(Baudrate)
                        0x00011238   0x154  Code  Gb  Hardware.o [1]
Hardware::UART1SetInterrupt(void (*)(), unsigned long)
                        0x00011700    0x34  Code  Gb  Hardware.o [1]
Hardware::UART1SetLength(UART_Character_Length)
                        0x000114c4   0x118  Code  Gb  Hardware.o [1]
Hardware::UART1SetParity(Parity)
                        0x0001138c   0x138  Code  Gb  Hardware.o [1]
Hardware::UART1SetStop(StopBits)
                        0x000115dc    0xc8  Code  Gb  Hardware.o [1]
Hardware::UART2CheckStatus()
                        0x0001091c   0x100  Code  Gb  Hardware.o [1]
Hardware::UART2DisableInterrupt()
                        0x00010a30    0x14  Code  Gb  Hardware.o [1]
Hardware::UART2EnableInterrupt()
                        0x00010a1c    0x14  Code  Gb  Hardware.o [1]
Hardware::UART2Init()   0x000103bc    0x64  Code  Gb  Hardware.o [1]
Hardware::UART2RecvByte()
                        0x000108d0    0x18  Code  Gb  Hardware.o [1]
Hardware::UART2SendByte(unsigned char)
                        0x000108a4    0x2c  Code  Gb  Hardware.o [1]
Hardware::UART2SendReady()
                        0x0001088c    0x18  Code  Gb  Hardware.o [1]
Hardware::UART2SetBaud(Baudrate)
                        0x00010420   0x154  Code  Gb  Hardware.o [1]
Hardware::UART2SetInterrupt(void (*)(), unsigned long)
                        0x000108e8    0x34  Code  Gb  Hardware.o [1]
Hardware::UART2SetLength(UART_Character_Length)
                        0x000106ac   0x118  Code  Gb  Hardware.o [1]
Hardware::UART2SetParity(Parity)
                        0x00010574   0x138  Code  Gb  Hardware.o [1]
Hardware::UART2SetStop(StopBits)
                        0x000107c4    0xc8  Code  Gb  Hardware.o [1]
Hardware::UART3CheckStatus()
                        0x00010fa4   0x100  Code  Gb  Hardware.o [1]
Hardware::UART3DisableInterrupt()
                        0x000110b8    0x14  Code  Gb  Hardware.o [1]
Hardware::UART3EnableInterrupt()
                        0x000110a4    0x14  Code  Gb  Hardware.o [1]
Hardware::UART3Init()   0x00010a44    0x64  Code  Gb  Hardware.o [1]
Hardware::UART3RecvByte()
                        0x00010f58    0x18  Code  Gb  Hardware.o [1]
Hardware::UART3SendByte(unsigned char)
                        0x00010f2c    0x2c  Code  Gb  Hardware.o [1]
Hardware::UART3SendReady()
                        0x00010f14    0x18  Code  Gb  Hardware.o [1]
Hardware::UART3SetBaud(Baudrate)
                        0x00010aa8   0x154  Code  Gb  Hardware.o [1]
Hardware::UART3SetInterrupt(void (*)(), unsigned long)
                        0x00010f70    0x34  Code  Gb  Hardware.o [1]
Hardware::UART3SetLength(UART_Character_Length)
                        0x00010d34   0x118  Code  Gb  Hardware.o [1]
Hardware::UART3SetParity(Parity)
                        0x00010bfc   0x138  Code  Gb  Hardware.o [1]
Hardware::UART3SetStop(StopBits)
                        0x00010e4c    0xc8  Code  Gb  Hardware.o [1]
Hardware::~Hardware()   0x0000f088    0x1c  Code  Gb  Hardware.o [1]
Hardware::~Hardware() [internal]
                        0x0000f0a8     0x4  Code  Gb  Hardware.o [1]
HardwareResource::HardwareResource() [internal]
                        0x00052758     0x4  Code  Gb  HResource.o [1]
HardwareResource::HardwareResource() [subobject]
                        0x00052724    0x18  Code  Gb  HResource.o [1]
HardwareResource::Initial()
                        0x00052760    0x48  Code  Gb  HResource.o [1]
HardwareResource::is_task_running(OS_TASK *)
                        0x000527a8    0x2c  Code  Gb  HResource.o [1]
HardwareResource::~HardwareResource() [internal]
                        0x0005275c     0x4  Code  Gb  HResource.o [1]
HardwareResource::~HardwareResource() [subobject]
                        0x0005273c    0x1c  Code  Gb  HResource.o [1]
IP_ARP_OnRx             0x00043604   0x124  Code  Gb  IP_ARP.o [5]
IP_ARP_Send             0x00043728    0x9c  Code  Gb  IP_ARP.o [5]
IP_ARP_SendCnt          0x4000f594     0x4  Data  Gb  IP_ARP.o [5]
IP_ARP_SendDropCnt      0x4000f590     0x4  Data  Gb  IP_ARP.o [5]
IP_ARP_Stat             0x4000f580    0x10  Data  Gb  IP_ARP.o [5]
IP_ARP_Timer            0x000437c4    0xd4  Code  Gb  IP_ARP.o [5]
IP_AddBuffers           0x0003a490    0x44  Code  Gb  IP_Core.o [5]
IP_AddEtherInterface    0x0003a0ec    0x38  Code  Gb  IP_Core.o [5]
IP_AddTimer             0x0003a124    0x6c  Code  Gb  IP_Core.o [5]
IP_Alloc                0x00039d90    0x20  Code  Gb  IP_Core.o [5]
IP_AllocZeroed          0x00039db0    0x20  Code  Gb  IP_Core.o [5]
IP_AssignMemory         0x00039dd0    0x10  Code  Gb  IP_Core.o [5]
IP_BringInBounds        0x0003a030    0x20  Code  Gb  IP_Core.o [5]
IP_CalcChecksum_Byte    0x0003a458    0x38  Code  Gb  IP_Core.o [5]
IP_ConfTCPSpace         0x0003a4d4    0x10  Code  Gb  IP_Core.o [5]
IP_Debug                0x4000eec8    0x14  Data  Gb  IP_Debug.o [5]
IP_Driver_LPC24xx       0x000564d0    0x18  Data  Gb  IP_NI_LPC24xx.o [5]
IP_ETH_SendBroadcast    0x000438ec     0xc  Code  Gb  IP_ARP.o [5]
IP_ETH_SendMulticast    0x0004389c    0x50  Code  Gb  IP_ARP.o [5]
IP_Exec                 0x0003a1e8   0x130  Code  Gb  IP_Core.o [5]
IP_FreeInPCBQ           0x4000ef04    0x14  Data  Gb  IP_TCP_pcb.o [5]
IP_FreeSockOptQ         0x4000eeb4    0x14  Data  Gb  IP_socket.o [5]
IP_FreeTCPCBQ           0x4000daec    0x14  Data  Gb  IP_TCP_subr.o [5]
IP_FreeTCPIPHDRQ        0x4000db00    0x14  Data  Gb  IP_TCP_subr.o [5]
IP_FreeUDPQ             0x4000eef0    0x14  Data  Gb  IP_UDP.o [5]
IP_GetCurrentLinkSpeed  0x0003a560    0x10  Code  Gb  IP_Core.o [5]
IP_GetNextOutPacket     0x00039fd0    0x2c  Code  Gb  IP_Core.o [5]
IP_Global               0x4000db14    0xd4  Data  Gb  IP_Debug.o [5]
IP_ICMP_Mib             0x4000e5a0    0x68  Data  Gb  IP_ICMP.o [5]
IP_ICMP_OnRx            0x0004d2dc   0x148  Code  Gb  IP_ICMP.o [5]
IP_IP_OnRx              0x00049f28   0x218  Code  Gb  IP_IP.o [5]
IP_Init                 0x0003a5dc   0x168  Code  Gb  IP_Core.o [5]
IP_IsExpired            0x0003a570    0x1c  Code  Gb  IP_Core.o [5]
IP_LastTP               0x4000f32c     0x4  Data  Gb  IP_TCP_usr.o [5]
IP_LinkDuplex           0x4000f578     0x4  Data  Gb  IP_Core.o [5]
IP_LinkSpeed            0x4000f574     0x4  Data  Gb  IP_Core.o [5]
IP_LoadU16BE            0x0003a088     0x4  Code  Gb  IP_Core.o [5]
IP_LoadU16LE            0x0003a098    0x10  Code  Gb  IP_Core.o [5]
IP_LoadU32BE            0x0003a070    0x18  Code  Gb  IP_Core.o [5]
IP_LoadU32LE            0x0003a050    0x20  Code  Gb  IP_Core.o [5]
IP_Log                  0x0004d994    0x2c  Code  Gb  IP_ConfigIO.o [1]
IP_Logf                 0x000484b4    0x44  Code  Gb  IP_Log.o [5]
IP_MBUF_Get             0x0003d90c    0xc4  Code  Gb  IP_TCP.o [5]
IP_MBUF_Init            0x0003ddc4    0x4c  Code  Gb  IP_TCP.o [5]
IP_MiscPacket           0x4000eedc    0x14  Data  Gb  IP_Packet.o [5]
IP_NI_ClrBPressure      0x00039f44    0x18  Code  Gb  IP_Core.o [5]
IP_NI_GetCaps           0x0003a760    0x2c  Code  Gb  IP_Core.o [5]
IP_NI_LoadHWAddr        0x0003a748    0x18  Code  Gb  IP_Core.o [5]
IP_NI_SetBPressure      0x00039f2c    0x18  Code  Gb  IP_Core.o [5]
IP_OS_AssertLock        0x0004c684    0x40  Code  Gb  IP_OS.o [1]
IP_OS_Delay             0x0004c64c    0x14  Code  Gb  IP_OS.o [1]
IP_OS_DisableInterrupt  0x0004c5bc    0x38  Code  Gb  IP_OS.o [1]
IP_OS_EnableInterrupt   0x0004c5f4    0x44  Code  Gb  IP_OS.o [1]
IP_OS_GetTime32         0x0004c63c    0x10  Code  Gb  IP_OS.o [1]
IP_OS_Init              0x0004c59c    0x20  Code  Gb  IP_OS.o [1]
IP_OS_Lock              0x0004c660    0x10  Code  Gb  IP_OS.o [1]
IP_OS_SignalItem        0x0004c808    0x58  Code  Gb  IP_OS.o [1]
IP_OS_SignalNetEvent    0x0004c6dc    0x10  Code  Gb  IP_OS.o [1]
IP_OS_SignalRxEvent     0x0004c700    0x10  Code  Gb  IP_OS.o [1]
IP_OS_Unlock            0x0004c670    0x10  Code  Gb  IP_OS.o [1]
IP_OS_WaitItem          0x0004c7f0    0x18  Code  Gb  IP_OS.o [1]
IP_OS_WaitItemTimed     0x0004c714    0xdc  Code  Gb  IP_OS.o [1]
IP_OS_WaitNetEvent      0x0004c6c4    0x18  Code  Gb  IP_OS.o [1]
IP_OS_WaitRxEvent       0x0004c6f0    0x10  Code  Gb  IP_OS.o [1]
IP_OnRx                 0x00039f5c    0x34  Code  Gb  IP_Core.o [5]
IP_PACKET_Alloc         0x0004e34c    0xa0  Code  Gb  IP_Packet.o [5]
IP_PACKET_Q_Add         0x0004e308    0x24  Code  Gb  IP_Packet.o [5]
IP_PACKET_Q_GetRemoveFirst
                        0x0004e32c     0x8  Code  Gb  IP_Packet.o [5]
IP_PHY_Generic          0x0005731c     0x8  Data  Gb  IP_PHY.o [5]
IP_Panic                0x0004d964    0x30  Code  Gb  IP_ConfigIO.o [1]
IP_PrintfSafe           0x0004829c   0x218  Code  Gb  IP_Log.o [5]
IP_Q_Add                0x0004f384    0x80  Code  Gb  IP_Q.o [5]
IP_Q_GetFirst           0x0004f404     0x8  Code  Gb  IP_Q.o [5]
IP_Q_GetRemoveFirst     0x0004f45c    0x54  Code  Gb  IP_Q.o [5]
IP_Q_RemoveItem         0x0004f4c0    0x98  Code  Gb  IP_Q.o [5]
IP_Q_TryGetRemoveFirst  0x0004f40c    0x50  Code  Gb  IP_Q.o [5]
IP_ReadPackets          0x00039de0   0x14c  Code  Gb  IP_Core.o [5]
IP_RemoveOutPacket      0x00039ffc    0x30  Code  Gb  IP_Core.o [5]
IP_RxTask               0x0003a398    0x30  Code  Gb  IP_Core.o [5]
IP_RxTaskStarted        0x4000f57c     0x1  Data  Gb  IP_Core.o [5]
IP_SOCKET_Alloc         0x0002d0c8    0x84  Code  Gb  IP_socket.o [5]
IP_SOCKET_Cnt           0x4000effc     0x4  Data  Gb  IP_socket.o [5]
IP_SOCKET_DefaultOptions
                        0x4000f69c     0x2  Data  Gb  IP_socket.o [5]
IP_SOCKET_Free          0x0002d14c    0x24  Code  Gb  IP_socket.o [5]
IP_SOCKET_Limit         0x4000eff4     0x4  Data  Gb  IP_socket.o [5]
IP_SOCKET_Max           0x4000eff8     0x4  Data  Gb  IP_socket.o [5]
IP_SOCKET_h2p           0x0002d178    0x58  Code  Gb  IP_socket.o [5]
IP_SOCKET_p2h           0x0002d170     0x8  Code  Gb  IP_socket.o [5]
IP_SendPacketCnt        0x4000f320     0x4  Data  Gb  IP_Core.o [5]
IP_SetAddrMask          0x0003a1a4    0x28  Code  Gb  IP_Core.o [5]
IP_SetCurrentLinkState  0x0003a4e4    0x7c  Code  Gb  IP_Core.o [5]
IP_SetGWAddr            0x0003a1cc    0x18  Code  Gb  IP_Core.o [5]
IP_SetHWAddr            0x0003a190    0x10  Code  Gb  IP_Core.o [5]
IP_SetLogFilter         0x0004853c     0x8  Code  Gb  IP_Log.o [5]
IP_SetWarnFilter        0x00048544     0x8  Code  Gb  IP_Log.o [5]
IP_StoreU32BE           0x0003a0a8    0x20  Code  Gb  IP_Core.o [5]
IP_SwapU32              0x0003a0c8    0x24  Code  Gb  IP_Core.o [5]
IP_TCP_CalcChecksum     0x0003d828    0x64  Code  Gb  IP_TCP.o [5]
IP_TCP_DataUpcall       0x000525ac    0xbc  Code  Gb  IP_TCP_zio.o [5]
IP_TCP_FastTimer        0x000459e0    0x78  Code  Gb  IP_TCP_timr.o [5]
IP_TCP_KeepIdle         0x4000f654     0x4  Data  Gb  IP_TCP_timr.o [5]
IP_TCP_KeepInit         0x4000f650     0x4  Data  Gb  IP_TCP_timr.o [5]
IP_TCP_KeepMaxReps      0x4000f65c     0x4  Data  Gb  IP_TCP_timr.o [5]
IP_TCP_KeepPeriod       0x4000f658     0x4  Data  Gb  IP_TCP_timr.o [5]
IP_TCP_Msl              0x4000f690     0x4  Data  Gb  IP_TCP_timr.o [5]
IP_TCP_OnRx             0x00021b20  0x159c  Code  Gb  IP_TCP_in.o [5]
IP_TCP_OnTimer          0x00045c38   0x284  Code  Gb  IP_TCP_timr.o [5]
IP_TCP_PCB_alloc        0x00047370    0x54  Code  Gb  IP_TCP_pcb.o [5]
IP_TCP_PCB_bind         0x00047410   0x138  Code  Gb  IP_TCP_pcb.o [5]
IP_TCP_PCB_connect      0x00047548    0xf8  Code  Gb  IP_TCP_pcb.o [5]
IP_TCP_PCB_detach       0x000473c4    0x48  Code  Gb  IP_TCP_pcb.o [5]
IP_TCP_PCB_disconnect   0x00047640    0x24  Code  Gb  IP_TCP_pcb.o [5]
IP_TCP_PCB_lookup       0x000476e4   0x134  Code  Gb  IP_TCP_pcb.o [5]
IP_TCP_RetransDelayMax  0x4000f66c     0x4  Data  Gb  IP_TCP_timr.o [5]
IP_TCP_RetransDelayMin  0x4000f668     0x4  Data  Gb  IP_TCP_timr.o [5]
IP_TCP_SetRetransDelay  0x00045f14    0x24  Code  Gb  IP_TCP_timr.o [5]
IP_TCP_SlowTimer        0x00045a58   0x1c4  Code  Gb  IP_TCP_timr.o [5]
IP_TCP_Start2MSLTimer   0x00045eec    0x24  Code  Gb  IP_TCP_timr.o [5]
IP_TCP_StartKEEPTimer   0x00045ed8    0x14  Code  Gb  IP_TCP_timr.o [5]
IP_TCP_StartREXMTTimer  0x00045ec0    0x18  Code  Gb  IP_TCP_timr.o [5]
IP_TCP_Stat             0x4000da0c    0xe0  Data  Gb  IP_TCP_subr.o [5]
IP_Task                 0x0003a318    0x7c  Code  Gb  IP_Core.o [5]
IP_TryAlloc             0x00039d28    0x68  Code  Gb  IP_Core.o [5]
IP_TryAllocWithQ        0x0003a58c    0x38  Code  Gb  IP_Core.o [5]
IP_UDP_Alloc            0x00042aac    0x3c  Code  Gb  IP_UDP.o [5]
IP_UDP_Close            0x00042c08    0x8c  Code  Gb  IP_UDP.o [5]
IP_UDP_FindFreePort     0x00042a2c    0x80  Code  Gb  IP_UDP.o [5]
IP_UDP_OnRx             0x00042624   0x2c4  Code  Gb  IP_UDP.o [5]
IP_UDP_Open             0x00042b0c    0xfc  Code  Gb  IP_UDP.o [5]
IP_UDP_RxChecksumEnable
                        0x4000f6a3     0x1  Data  Gb  IP_UDP.o [5]
IP_UDP_Send             0x000428e8   0x144  Code  Gb  IP_UDP.o [5]
IP_UDP_TxChecksumEnable
                        0x4000f6a4     0x1  Data  Gb  IP_UDP.o [5]
IP_UseBPressure         0x4000f57d     0x1  Data  Gb  IP_Core.o [5]
IP_Warn                 0x0004d9c0    0x38  Code  Gb  IP_ConfigIO.o [1]
IP_Warnf                0x000484f8    0x44  Code  Gb  IP_Log.o [5]
IP_Write                0x00049d88   0x1a0  Code  Gb  IP_IP.o [5]
IP_X_Config             0x00050ef4   0x120  Code  Gb  IP_Config_LPC23xx.o [1]
IP__SendPacket          0x00039f90    0x40  Code  Gb  IP_Core.o [5]
IP_aIFace               0x4000f4ac    0x78  Data  Gb  IP_Core.o [5]
IP_cksum                0x0003a3c8    0x90  Code  Gb  IP_Core.o [5]
IP_tcb                  0x4000eb48    0x24  Data  Gb  IP_TCP.o [5]
IRQ_Handler             0x0004f124          Code  Gb  rtos.o [6]
IRQ_STACK$$Base         0x40001400           --   Gb  - Linker created -
IRQ_STACK$$Limit        0x40001800           --   Gb  - Linker created -
JLINKDCC_AbortOccurred  0x4000f37a     0x1  Data  Gb  JLINKDCC_ProcessV2.o [1]
JLINKDCC_IsInHandler    0x4000f379     0x1  Data  Gb  JLINKDCC_ProcessV2.o [1]
JLINKDCC_Process()      0x00043e3c    0x3c  Code  Gb  JLINKDCC_ProcessV2.o [1]
Key::ClearKeyBuffer()   0x00036d24    0x6c  Code  Gb  Key.o [1]
Key::DisableEvents()    0x00036db4    0xf4  Code  Gb  Key.o [1]
Key::GetKey(int)        0x00036cac    0x60  Code  Gb  Key.o [1]
Key::GetLastKey()       0x00036d0c    0x18  Code  Gb  Key.o [1]
Key::Key()              0x00036c38    0x18  Code  Gb  Key.o [1]
Key::Key() [internal]   0x00036c6c    0x24  Code  Gb  Key.o [1]
Key::MAX_LEN            0x4000f674     0x4  Data  Gb  Key.o [1]
Key::SetAnyKeyEvent(void (*)())
                        0x00036d90     0xc  Code  Gb  Key.o [1]
Key::SetESCKeyEvent(void (*)())
                        0x00036da8     0xc  Code  Gb  Key.o [1]
Key::SetOKKeyEvent(void (*)())
                        0x00036d9c     0xc  Code  Gb  Key.o [1]
Key::call_appropriate_event()
                        0x00036f8c   0x1f4  Code  Gb  Key.o [1]
Key::create_critical_tasks()
                        0x00036f70     0x4  Code  Gb  Key.o [1]
Key::create_nonecritical_tasks()
                        0x00036f74     0x4  Code  Gb  Key.o [1]
Key::create_timers()    0x00036f78     0x4  Code  Gb  Key.o [1]
Key::disable_interrupts()
                        0x00036f20    0x28  Code  Gb  Key.o [1]
Key::enable             0x4000f37d     0x1  Data  Gb  Key.o [1]
Key::enable_interrupts()
                        0x00036f48    0x28  Code  Gb  Key.o [1]
Key::ep_any_key_press   0x4000f180     0x4  Data  Gb  Key.o [1]
Key::ep_arrow_key_press
                        0x4000f194     0x4  Data  Gb  Key.o [1]
Key::ep_down_key_press  0x4000f1b4     0x4  Data  Gb  Key.o [1]
Key::ep_enter_key_press
                        0x4000f1cc     0x4  Data  Gb  Key.o [1]
Key::ep_esc_key_press   0x4000f188     0x4  Data  Gb  Key.o [1]
Key::ep_exit_key_press  0x4000f1c4     0x4  Data  Gb  Key.o [1]
Key::ep_f1_key_press    0x4000f1a0     0x4  Data  Gb  Key.o [1]
Key::ep_f2_key_press    0x4000f1a4     0x4  Data  Gb  Key.o [1]
Key::ep_f3_key_press    0x4000f1a8     0x4  Data  Gb  Key.o [1]
Key::ep_f4_key_press    0x4000f1ac     0x4  Data  Gb  Key.o [1]
Key::ep_function_key_press
                        0x4000f19c     0x4  Data  Gb  Key.o [1]
Key::ep_left_key_press  0x4000f1b8     0x4  Data  Gb  Key.o [1]
Key::ep_menu_key_press  0x4000f18c     0x4  Data  Gb  Key.o [1]
Key::ep_mission_key_press
                        0x4000f1c8     0x4  Data  Gb  Key.o [1]
Key::ep_number_key_press
                        0x4000f190     0x4  Data  Gb  Key.o [1]
Key::ep_ok_key_press    0x4000f184     0x4  Data  Gb  Key.o [1]
Key::ep_right_key_press
                        0x4000f1bc     0x4  Data  Gb  Key.o [1]
Key::ep_special_key_press
                        0x4000f198     0x4  Data  Gb  Key.o [1]
Key::ep_up_key_press    0x4000f1b0     0x4  Data  Gb  Key.o [1]
Key::ep_vacation_key_press
                        0x4000f1c0     0x4  Data  Gb  Key.o [1]
Key::final_initialization()
                        0x00036f0c     0x4  Code  Gb  Key.o [1]
Key::initial_critical_resources()
                        0x00036ee8     0x4  Code  Gb  Key.o [1]
Key::initial_hardware()
                        0x00036ea8    0x40  Code  Gb  Key.o [1]
Key::initial_members()  0x00036ef0    0x1c  Code  Gb  Key.o [1]
Key::initial_statuses()
                        0x00036eec     0x4  Code  Gb  Key.o [1]
Key::key_count          0x4000f17c     0x4  Data  Gb  Key.o [1]
Key::key_info           0x4000d5b8   0x190  Data  Gb  Key.o [1]
Key::key_interrupt()    0x00037258   0x6a4  Code  Gb  Key.o [1]
Key::push_key_to_buffer(KeyFunction, KeyStatus, int)
                        0x000371d0    0x7c  Code  Gb  Key.o [1]
Key::resume_nonecritical_tasks()
                        0x00036f80     0x4  Code  Gb  Key.o [1]
Key::set_enable_flag(bool)
                        0x00036f10    0x10  Code  Gb  Key.o [1]
Key::start_timers()     0x00036f84     0x4  Code  Gb  Key.o [1]
Key::stop_timers()      0x00036f88     0x4  Code  Gb  Key.o [1]
Key::suspend_nonecritical_tasks()
                        0x00036f7c     0x4  Code  Gb  Key.o [1]
Key::~Key()             0x00036c50    0x1c  Code  Gb  Key.o [1]
Key::~Key() [internal]  0x00036c90    0x1c  Code  Gb  Key.o [1]
LCD::Clear()            0x00033594    0x18  Code  Gb  LCD.o [1]
LCD::Clear(Color)       0x000335ac    0x34  Code  Gb  LCD.o [1]
LCD::Clear(int)         0x000335e0    0x4c  Code  Gb  LCD.o [1]
LCD::Clear(int, Color)  0x0003362c    0x48  Code  Gb  LCD.o [1]
LCD::Clear(int, int, int, int, Color)
                        0x00033674    0x98  Code  Gb  LCD.o [1]
LCD::DrawEntireScreen(unsigned char *)
                        0x00033bbc    0x88  Code  Gb  LCD.o [1]
LCD::DrawIcon(Alignment, int, int)
                        0x00033b3c    0x80  Code  Gb  LCD.o [1]
LCD::DrawIcon(int, int, int)
                        0x00033adc    0x60  Code  Gb  LCD.o [1]
LCD::Get_Length(string)
                        0x00033e18    0xd8  Code  Gb  LCD.o [1]
LCD::LCD()              0x000333c4    0x18  Code  Gb  LCD.o [1]
LCD::LCD() [internal]   0x00033434    0x48  Code  Gb  LCD.o [1]
LCD::LCD(Language)      0x000333dc    0x1c  Code  Gb  LCD.o [1]
LCD::LCD(Language) [internal]
                        0x0003347c    0x50  Code  Gb  LCD.o [1]
LCD::LCD(Size, Language)
                        0x000333f8    0x20  Code  Gb  LCD.o [1]
LCD::LCD(Size, Language) [internal]
                        0x000334cc    0x58  Code  Gb  LCD.o [1]
LCD::PowerMode(Power)   0x00033554    0x40  Code  Gb  LCD.o [1]
LCD::SetPixelFormat(PixelFormat)
                        0x00033c44     0x8  Code  Gb  LCD.o [1]
LCD::Write(Alignment, int, string)
                        0x00033948   0x194  Code  Gb  LCD.o [1]
LCD::Write(Alignment, string)
                        0x000338c4    0x84  Code  Gb  LCD.o [1]
LCD::Write(int, int, string)
                        0x00033748   0x17c  Code  Gb  LCD.o [1]
LCD::Write(string)      0x0003370c    0x3c  Code  Gb  LCD.o [1]
LCD::chip_enable(Direction, Activity)
                        0x00033fb8    0x90  Code  Gb  LCD.o [1]
LCD::create_timers()    0x00033cdc     0x4  Code  Gb  LCD.o [1]
LCD::draw_symbol(int, int, int, int, unsigned char *)
                        0x00033d44    0xd4  Code  Gb  LCD.o [1]
LCD::gotoxy(int, int)   0x00034188    0x84  Code  Gb  LCD.o [1]
LCD::initial_hardware()
                        0x00033c4c    0x84  Code  Gb  LCD.o [1]
LCD::initial_members()  0x00033cd0     0xc  Code  Gb  LCD.o [1]
LCD::is_persian(string)
                        0x00033ce0    0x64  Code  Gb  LCD.o [1]
LCD::lcd_putchar(char, int, int, int, int, int, bool)
                        0x00033ef0    0xc8  Code  Gb  LCD.o [1]
LCD::lcd_send(unsigned char, DataType)
                        0x00034048    0xc0  Code  Gb  LCD.o [1]
LCD::send_command(unsigned char)
                        0x00034144    0x44  Code  Gb  LCD.o [1]
LCD::send_data(unsigned char, int, int)
                        0x00034108    0x3c  Code  Gb  LCD.o [1]
LCD::set_x(int)         0x0003420c    0x3c  Code  Gb  LCD.o [1]
LCD::set_y(int)         0x00034248    0x3c  Code  Gb  LCD.o [1]
LCD::~LCD()             0x00033418    0x1c  Code  Gb  LCD.o [1]
LCD::~LCD() [internal]  0x00033524    0x2c  Code  Gb  LCD.o [1]
LED::FileLED(Power)     0x0003fd50    0x98  Code  Gb  LED.o [1]
LED::FileLED_100ms()    0x0003ff5c    0x1c  Code  Gb  LED.o [1]
LED::KeyLED(Power)      0x0003fc20    0x98  Code  Gb  LED.o [1]
LED::KeyLED_100ms()     0x0003ff40    0x1c  Code  Gb  LED.o [1]
LED::LANLED(Power)      0x0003fcb8    0x98  Code  Gb  LED.o [1]
LED::LED()              0x0003f94c    0x18  Code  Gb  LED.o [1]
LED::LED() [internal]   0x0003f980    0x24  Code  Gb  LED.o [1]
LED::LiveLED(Power)     0x0003fde8    0x98  Code  Gb  LED.o [1]
LED::ToggleLiveLED()    0x0003fe80    0x50  Code  Gb  LED.o [1]
LED::UART0LED(Power)    0x0003f9c0    0x98  Code  Gb  LED.o [1]
LED::UART0LED_100ms()   0x0003fed0    0x1c  Code  Gb  LED.o [1]
LED::UART1LED(Power)    0x0003fa58    0x98  Code  Gb  LED.o [1]
LED::UART1LED_100ms()   0x0003feec    0x1c  Code  Gb  LED.o [1]
LED::UART2LED(Power)    0x0003faf0    0x98  Code  Gb  LED.o [1]
LED::UART2LED_100ms()   0x0003ff08    0x1c  Code  Gb  LED.o [1]
LED::UART3LED(Power)    0x0003fb88    0x98  Code  Gb  LED.o [1]
LED::UART3LED_100ms()   0x0003ff24    0x1c  Code  Gb  LED.o [1]
LED::create_timers()    0x0003ffb4    0xac  Code  Gb  LED.o [1]
LED::initial_hardware()
                        0x0003ff78    0x28  Code  Gb  LED.o [1]
LED::initial_members()  0x0003ffa0    0x10  Code  Gb  LED.o [1]
LED::led_value          0x4000f37e     0x1  Data  Gb  LED.o [1]
LED::timer_elapse_led_file()
                        0x000400e0    0x10  Code  Gb  LED.o [1]
LED::timer_elapse_led_key()
                        0x000400c0    0x10  Code  Gb  LED.o [1]
LED::timer_elapse_led_lan()
                        0x000400d0    0x10  Code  Gb  LED.o [1]
LED::timer_elapse_led_live()
                        0x000400f0    0x10  Code  Gb  LED.o [1]
LED::timer_elapse_led_uart0()
                        0x00040080    0x10  Code  Gb  LED.o [1]
LED::timer_elapse_led_uart1()
                        0x00040090    0x10  Code  Gb  LED.o [1]
LED::timer_elapse_led_uart2()
                        0x000400a0    0x10  Code  Gb  LED.o [1]
LED::timer_elapse_led_uart3()
                        0x000400b0    0x10  Code  Gb  LED.o [1]
LED::timer_led_file     0x4000ed10    0x14  Data  Gb  LED.o [1]
LED::timer_led_key      0x4000ece8    0x14  Data  Gb  LED.o [1]
LED::timer_led_lan      0x4000ecfc    0x14  Data  Gb  LED.o [1]
LED::timer_led_live     0x4000ed24    0x14  Data  Gb  LED.o [1]
LED::timer_led_uart0    0x4000ec98    0x14  Data  Gb  LED.o [1]
LED::timer_led_uart1    0x4000ecac    0x14  Data  Gb  LED.o [1]
LED::timer_led_uart2    0x4000ecc0    0x14  Data  Gb  LED.o [1]
LED::timer_led_uart3    0x4000ecd4    0x14  Data  Gb  LED.o [1]
LED::~LED()             0x0003f964    0x1c  Code  Gb  LED.o [1]
LED::~LED() [internal]  0x0003f9a4    0x1c  Code  Gb  LED.o [1]
Menu::DisableEvents()   0x00000604    0x10  Code  Gb  Menu.o [1]
Menu::Err_Recieve_Finger()
                        0x00007ff0    0x84  Code  Gb  Menu.o [1]
Menu::Menu()            0x00000200    0x18  Code  Gb  Menu.o [1]
Menu::Menu() [internal]
                        0x0000027c    0x24  Code  Gb  Menu.o [1]
Menu::RecievePacket_modem_true(string)
                        0x00000870   0x1ac  Code  Gb  Menu.o [1]
Menu::Send_ATcommand_Modem(Modem_ATcommand)
                        0x000007a8    0xc8  Code  Gb  Menu.o [1]
Menu::SetExitMenuEvent(void (*)())
                        0x000005f8     0xc  Code  Gb  Menu.o [1]
Menu::Show()            0x000002bc   0x33c  Code  Gb  Menu.o [1]
Menu::StopTimers()      0x00000614    0x2c  Code  Gb  Menu.o [1]
Menu::cancel_success()  0x00008074    0x94  Code  Gb  Menu.o [1]
Menu::card_is_repetitive()
                        0x00007d3c    0xcc  Code  Gb  Menu.o [1]
Menu::card_is_unique()  0x00007e08    0xf4  Code  Gb  Menu.o [1]
Menu::card_is_unique_ex()
                        0x00007efc    0xf4  Code  Gb  Menu.o [1]
Menu::card_present()    0x0000704c    0xc4  Code  Gb  Menu.o [1]
Menu::card_present_ex()
                        0x00007110    0xc4  Code  Gb  Menu.o [1]
Menu::command_cancel()  0x00003b70   0x174  Code  Gb  Menu.o [1]
Menu::command_execute_fail()
                        0x00003dec   0x108  Code  Gb  Menu.o [1]
Menu::command_execute_successfully()
                        0x00003ce4   0x108  Code  Gb  Menu.o [1]
Menu::command_process()
                        0x00002b5c  0x1014  Code  Gb  Menu.o [1]
Menu::create_timers()   0x00000a24    0x84  Code  Gb  Menu.o [1]
Menu::delete_all_person_fail()
                        0x00007894    0x38  Code  Gb  Menu.o [1]
Menu::delete_all_person_success()
                        0x0000785c    0x38  Code  Gb  Menu.o [1]
Menu::delete_all_templates_fail()
                        0x00007c94     0x4  Code  Gb  Menu.o [1]
Menu::delete_all_templates_success()
                        0x00007c90     0x4  Code  Gb  Menu.o [1]
Menu::delete_person_fail()
                        0x00007858     0x4  Code  Gb  Menu.o [1]
Menu::delete_person_success()
                        0x00007644   0x214  Code  Gb  Menu.o [1]
Menu::delete_records_success()
                        0x00007d04    0x38  Code  Gb  Menu.o [1]
Menu::delete_template_fail()
                        0x00007ab4   0x1dc  Code  Gb  Menu.o [1]
Menu::delete_template_success()
                        0x000078cc   0x1e8  Code  Gb  Menu.o [1]
Menu::draw_menu()       0x00005740   0x14c  Code  Gb  Menu.o [1]
Menu::enroll_fail()     0x00006c8c   0x20c  Code  Gb  Menu.o [1]
Menu::enroll_success(unsigned long)
                        0x00006670   0x284  Code  Gb  Menu.o [1]
Menu::ep_exit_menu      0x4000f1dc     0x4  Data  Gb  Menu.o [1]
Menu::finger_is_repetitive()
                        0x00006e98   0x1b4  Code  Gb  Menu.o [1]
Menu::first_template_scan_success()
                        0x00006a9c   0x1f0  Code  Gb  Menu.o [1]
Menu::get_appropriate_message(FixMessage, Language)
                        0x00005ca0   0x774  Code  Gb  Menu.o [1]
Menu::get_menu_characteristic(MenuIndex)
                        0x0000588c   0x414  Code  Gb  Menu.o [1]
Menu::get_menu_title(MenuIndex, Language)
                        0x00006414   0x25c  Code  Gb  Menu.o [1]
Menu::highlighted_menu  0x4000f382     0x1  Data  Gb  Menu.o [1]
Menu::idenfify_success(unsigned long)
                        0x000068f4   0x1a4  Code  Gb  Menu.o [1]
Menu::identify_fail()   0x00006a98     0x4  Code  Gb  Menu.o [1]
Menu::init_members_for_next_command()
                        0x00003ef4    0x18  Code  Gb  Menu.o [1]
Menu::initial_members()
                        0x00000640    0x80  Code  Gb  Menu.o [1]
Menu::initial_modem_task()
                        0x000006d8    0xd0  Code  Gb  Menu.o [1]
Menu::is_OK             0x4000f69e     0x1  Data  Gb  Menu.o [1]
Menu::is_f1_pressed     0x4000f1d8     0x4  Data  Gb  Menu.o [1]
Menu::key_process()     0x00000fb8  0x1ba4  Code  Gb  Menu.o [1]
Menu::keypad_data       0x4000e498    0x8c  Data  Gb  Menu.o [1]
Menu::last_card_id      0x4000f1e8     0x4  Data  Gb  Menu.o [1]
Menu::menu_handler()    0x00003f0c    0x44  Code  Gb  Menu.o [1]
Menu::menu_index        0x4000f381     0x1  Data  Gb  Menu.o [1]
Menu::person_add_fail()
                        0x000074b0    0x68  Code  Gb  Menu.o [1]
Menu::person_add_success()
                        0x00007448    0x68  Code  Gb  Menu.o [1]
Menu::person_edit_fail()
                        0x00007580    0x68  Code  Gb  Menu.o [1]
Menu::person_edit_success()
                        0x00007518    0x68  Code  Gb  Menu.o [1]
Menu::person_information_receive(PersonInformation *)
                        0x000075e8    0x5c  Code  Gb  Menu.o [1]
Menu::person_is_exist()
                        0x000071d4   0x140  Code  Gb  Menu.o [1]
Menu::person_is_not_exist()
                        0x00007314   0x134  Code  Gb  Menu.o [1]
Menu::pi                0x4000ed88    0x14  Data  Gb  Menu.o [1]
Menu::receive_packet    0x4000e000    0x94  Data  Gb  Menu.o [1]
Menu::show_context()    0x00003f50  0x17f0  Code  Gb  Menu.o [1]
Menu::show_message(FixMessage, Language)
                        0x00000ee8    0xcc  Code  Gb  Menu.o [1]
Menu::stack_Modem       0x4000b488   0x400  Data  Gb  Menu.o [1]
Menu::sub_menu_index    0x4000f1e0     0x4  Data  Gb  Menu.o [1]
Menu::sub_menu_temp_index
                        0x4000f1e4     0x4  Data  Gb  Menu.o [1]
Menu::tcb_Modem         0x4000e85c    0x38  Data  Gb  Menu.o [1]
Menu::timer_elapse_menu()
                        0x00000aa8    0x94  Code  Gb  Menu.o [1]
Menu::timer_elapse_message()
                        0x00000e00    0xd4  Code  Gb  Menu.o [1]
Menu::timer_elapse_second()
                        0x00000b48    0xa4  Code  Gb  Menu.o [1]
Menu::timer_elapse_special()
                        0x00000bf0   0x204  Code  Gb  Menu.o [1]
Menu::timer_menu        0x4000ed38    0x14  Data  Gb  Menu.o [1]
Menu::timer_message     0x4000ed4c    0x14  Data  Gb  Menu.o [1]
Menu::timer_second      0x4000ed60    0x14  Data  Gb  Menu.o [1]
Menu::timer_special     0x4000ed74    0x14  Data  Gb  Menu.o [1]
Menu::valid_admin_finger()
                        0x00007c98    0x6c  Code  Gb  Menu.o [1]
Menu::~Menu()           0x00000218    0x1c  Code  Gb  Menu.o [1]
Menu::~Menu() [internal]
                        0x000002a0    0x1c  Code  Gb  Menu.o [1]
MiddlewareResource::Initial()
                        0x00052210    0x48  Code  Gb  MResource.o [1]
MiddlewareResource::MiddlewareResource() [internal]
                        0x00052208     0x4  Code  Gb  MResource.o [1]
MiddlewareResource::MiddlewareResource() [subobject]
                        0x000521d4    0x18  Code  Gb  MResource.o [1]
MiddlewareResource::is_task_running(OS_TASK *)
                        0x00052274    0x2c  Code  Gb  MResource.o [1]
MiddlewareResource::safe_call_handler(void (*)())
                        0x00052258    0x1c  Code  Gb  MResource.o [1]
MiddlewareResource::~MiddlewareResource() [internal]
                        0x0005220c     0x4  Code  Gb  MResource.o [1]
MiddlewareResource::~MiddlewareResource() [subobject]
                        0x000521ec    0x1c  Code  Gb  MResource.o [1]
Mifare::AnalyzePermission(bool)
                        0x00035240     0xc  Code  Gb  Mifare.o [1]
Mifare::DisableEvents()
                        0x0003527c    0x4c  Code  Gb  Mifare.o [1]
Mifare::Enable_GetSNMifare(bool)
                        0x00035c60     0xc  Code  Gb  Mifare.o [1]
Mifare::GP8CommandSelectCard()
                        0x0003526c     0x4  Code  Gb  Mifare.o [1]
Mifare::GetLastCardID()
                        0x00035230    0x10  Code  Gb  Mifare.o [1]
Mifare::Mifare()        0x000350dc    0x18  Code  Gb  Mifare.o [1]
Mifare::Mifare() [internal]
                        0x00035158    0x24  Code  Gb  Mifare.o [1]
Mifare::MifareCommandGetSNCard()
                        0x0003525c    0x10  Code  Gb  Mifare.o [1]
Mifare::MifareCommandRequestCard()
                        0x0003524c    0x10  Code  Gb  Mifare.o [1]
Mifare::SetCardPresentEvent(void (*)())
                        0x00035270     0xc  Code  Gb  Mifare.o [1]
Mifare::SetPort(Baudrate, Parity, StopBits, UART_Character_Length)
                        0x00035198    0x98  Code  Gb  Mifare.o [1]
Mifare::analyze_permission
                        0x4000f387     0x1  Data  Gb  Mifare.o [1]
Mifare::analyze_receive_packet()
                        0x00035904   0x340  Code  Gb  Mifare.o [1]
Mifare::blnGetSNMifare  0x4000f383     0x1  Data  Gb  Mifare.o [1]
Mifare::create_critical_tasks()
                        0x0003544c     0x4  Code  Gb  Mifare.o [1]
Mifare::create_nonecritical_tasks()
                        0x00035450     0x4  Code  Gb  Mifare.o [1]
Mifare::create_timers()
                        0x00035454    0x44  Code  Gb  Mifare.o [1]
Mifare::disable_interrupts()
                        0x000353fc    0x28  Code  Gb  Mifare.o [1]
Mifare::enable          0x4000f388     0x1  Data  Gb  Mifare.o [1]
Mifare::enable_interrupts()
                        0x00035424    0x28  Code  Gb  Mifare.o [1]
Mifare::ep_card_present
                        0x4000f1f4     0x4  Data  Gb  Mifare.o [1]
Mifare::ep_frame_error  0x4000f208     0x4  Data  Gb  Mifare.o [1]
Mifare::ep_receive_byte_complete
                        0x4000f204     0x4  Data  Gb  Mifare.o [1]
Mifare::ep_receive_complete
                        0x4000f1fc     0x4  Data  Gb  Mifare.o [1]
Mifare::ep_send_byte_complete
                        0x4000f200     0x4  Data  Gb  Mifare.o [1]
Mifare::ep_send_complete
                        0x4000f1f8     0x4  Data  Gb  Mifare.o [1]
Mifare::final_initialization()
                        0x00035364    0x8c  Code  Gb  Mifare.o [1]
Mifare::initial_critical_resources()
                        0x00035304     0x4  Code  Gb  Mifare.o [1]
Mifare::initial_hardware()
                        0x000352c8    0x3c  Code  Gb  Mifare.o [1]
Mifare::initial_members()
                        0x0003530c    0x58  Code  Gb  Mifare.o [1]
Mifare::initial_statuses()
                        0x00035308     0x4  Code  Gb  Mifare.o [1]
Mifare::last_card_id    0x4000f1ec     0x4  Data  Gb  Mifare.o [1]
Mifare::last_command    0x4000f385     0x1  Data  Gb  Mifare.o [1]
Mifare::last_received_byte
                        0x4000f386     0x1  Data  Gb  Mifare.o [1]
Mifare::receive_packet  0x4000e128    0x94  Data  Gb  Mifare.o [1]
Mifare::resume_nonecritical_tasks()
                        0x0003549c     0x4  Code  Gb  Mifare.o [1]
Mifare::send_command(MifareCommand)
                        0x00035c70    0x20  Code  Gb  Mifare.o [1]
Mifare::send_command(MifareCommand, unsigned char)
                        0x00035c90    0xd4  Code  Gb  Mifare.o [1]
Mifare::send_data_counter
                        0x4000f1f0     0x4  Data  Gb  Mifare.o [1]
Mifare::send_packet     0x4000e094    0x94  Data  Gb  Mifare.o [1]
Mifare::send_receive_interrupt()
                        0x000354dc   0x410  Code  Gb  Mifare.o [1]
Mifare::set_enable_flag(bool)
                        0x000353f0     0xc  Code  Gb  Mifare.o [1]
Mifare::start_timers()  0x000354a0    0x1c  Code  Gb  Mifare.o [1]
Mifare::station_id      0x4000f384     0x1  Data  Gb  Mifare.o [1]
Mifare::stop_timers()   0x000354bc    0x1c  Code  Gb  Mifare.o [1]
Mifare::suspend_nonecritical_tasks()
                        0x00035498     0x4  Code  Gb  Mifare.o [1]
Mifare::timer_elapse_read_card()
                        0x00035d7c    0x6c  Code  Gb  Mifare.o [1]
Mifare::timer_elapse_receive_analyze()
                        0x00035de8    0xa4  Code  Gb  Mifare.o [1]
Mifare::timer_rceive_analyze
                        0x4000edb0    0x14  Data  Gb  Mifare.o [1]
Mifare::timer_read_card
                        0x4000ed9c    0x14  Data  Gb  Mifare.o [1]
Mifare::~Mifare()       0x000350f4    0x1c  Code  Gb  Mifare.o [1]
Mifare::~Mifare() [internal]
                        0x0003517c    0x1c  Code  Gb  Mifare.o [1]
MifareEx::AlarmOk       0x4000f38f     0x1  Data  Gb  MifareEx.o [1]
MifareEx::AnalyzePermission(bool)
                        0x0002e4e8     0xc  Code  Gb  MifareEx.o [1]
MifareEx::DisableEvents()
                        0x0002e524    0x4c  Code  Gb  MifareEx.o [1]
MifareEx::Enable_GetSNMifare(bool)
                        0x0002efe0     0xc  Code  Gb  MifareEx.o [1]
MifareEx::GP8CommandSelectCard()
                        0x0002e514     0x4  Code  Gb  MifareEx.o [1]
MifareEx::GetLastCardID()
                        0x0002e4d8    0x10  Code  Gb  MifareEx.o [1]
MifareEx::MifareCommandBuzzer(unsigned char)
                        0x0002f210    0xc8  Code  Gb  MifareEx.o [1]
MifareEx::MifareCommandGetSNCard()
                        0x0002e504    0x10  Code  Gb  MifareEx.o [1]
MifareEx::MifareCommandLED(bool, bool)
                        0x0002f2d8    0xc8  Code  Gb  MifareEx.o [1]
MifareEx::MifareCommandRequestCard()
                        0x0002e4f4    0x10  Code  Gb  MifareEx.o [1]
MifareEx::MifareEx()    0x0002e380    0x18  Code  Gb  MifareEx.o [1]
MifareEx::MifareEx() [internal]
                        0x0002e400    0x24  Code  Gb  MifareEx.o [1]
MifareEx::MifareSetAlarmOK()
                        0x0002f3e8    0x3c  Code  Gb  MifareEx.o [1]
MifareEx::MifareSetAlarmrErr()
                        0x0002f3a0    0x48  Code  Gb  MifareEx.o [1]
MifareEx::SetCardPresentEvent(void (*)())
                        0x0002e518     0xc  Code  Gb  MifareEx.o [1]
MifareEx::SetPort(Baudrate, Parity, StopBits, UART_Character_Length)
                        0x0002e440    0x98  Code  Gb  MifareEx.o [1]
MifareEx::analyze_permission
                        0x4000f38d     0x1  Data  Gb  MifareEx.o [1]
MifareEx::analyze_receive_packet()
                        0x0002ec18   0x3a4  Code  Gb  MifareEx.o [1]
MifareEx::blnGetSNMifare
                        0x4000f389     0x1  Data  Gb  MifareEx.o [1]
MifareEx::create_critical_tasks()
                        0x0002e704     0x4  Code  Gb  MifareEx.o [1]
MifareEx::create_nonecritical_tasks()
                        0x0002e708     0x4  Code  Gb  MifareEx.o [1]
MifareEx::create_timers()
                        0x0002e70c    0x8c  Code  Gb  MifareEx.o [1]
MifareEx::disable_interrupts()
                        0x0002e6b4    0x28  Code  Gb  MifareEx.o [1]
MifareEx::enable        0x4000f38e     0x1  Data  Gb  MifareEx.o [1]
MifareEx::enable_interrupts()
                        0x0002e6dc    0x28  Code  Gb  MifareEx.o [1]
MifareEx::ep_card_present
                        0x4000f218     0x4  Data  Gb  MifareEx.o [1]
MifareEx::ep_frame_error
                        0x4000f22c     0x4  Data  Gb  MifareEx.o [1]
MifareEx::ep_receive_byte_complete
                        0x4000f228     0x4  Data  Gb  MifareEx.o [1]
MifareEx::ep_receive_complete
                        0x4000f220     0x4  Data  Gb  MifareEx.o [1]
MifareEx::ep_send_byte_complete
                        0x4000f224     0x4  Data  Gb  MifareEx.o [1]
MifareEx::ep_send_complete
                        0x4000f21c     0x4  Data  Gb  MifareEx.o [1]
MifareEx::final_initialization()
                        0x0002e610    0x98  Code  Gb  MifareEx.o [1]
MifareEx::initial_critical_resources()
                        0x0002e5ac     0x4  Code  Gb  MifareEx.o [1]
MifareEx::initial_hardware()
                        0x0002e570    0x3c  Code  Gb  MifareEx.o [1]
MifareEx::initial_members()
                        0x0002e5b4    0x58  Code  Gb  MifareEx.o [1]
MifareEx::initial_statuses()
                        0x0002e5b0     0x4  Code  Gb  MifareEx.o [1]
MifareEx::last_card_id  0x4000f210     0x4  Data  Gb  MifareEx.o [1]
MifareEx::last_command  0x4000f38b     0x1  Data  Gb  MifareEx.o [1]
MifareEx::last_received_byte
                        0x4000f38c     0x1  Data  Gb  MifareEx.o [1]
MifareEx::receive_packet
                        0x4000e250    0x94  Data  Gb  MifareEx.o [1]
MifareEx::resume_nonecritical_tasks()
                        0x0002e7a4     0x4  Code  Gb  MifareEx.o [1]
MifareEx::send_command(MifareCommand)
                        0x0002eff0    0x24  Code  Gb  MifareEx.o [1]
MifareEx::send_command(MifareCommand, unsigned char)
                        0x0002f014    0xec  Code  Gb  MifareEx.o [1]
MifareEx::send_data_counter
                        0x4000f214     0x4  Data  Gb  MifareEx.o [1]
MifareEx::send_packet   0x4000e1bc    0x94  Data  Gb  MifareEx.o [1]
MifareEx::send_receive_interrupt()
                        0x0002e7e4   0x410  Code  Gb  MifareEx.o [1]
MifareEx::set_enable_flag(bool)
                        0x0002e6a8     0xc  Code  Gb  MifareEx.o [1]
MifareEx::start_timers()
                        0x0002e7a8    0x1c  Code  Gb  MifareEx.o [1]
MifareEx::station_id    0x4000f38a     0x1  Data  Gb  MifareEx.o [1]
MifareEx::stop_timers()
                        0x0002e7c4    0x1c  Code  Gb  MifareEx.o [1]
MifareEx::suspend_nonecritical_tasks()
                        0x0002e7a0     0x4  Code  Gb  MifareEx.o [1]
MifareEx::timer_Buzzer  0x4000edec    0x14  Data  Gb  MifareEx.o [1]
MifareEx::timer_LED     0x4000ee00    0x14  Data  Gb  MifareEx.o [1]
MifareEx::timer_elapse_Buzzer()
                        0x0002f424    0x10  Code  Gb  MifareEx.o [1]
MifareEx::timer_elapse_LED()
                        0x0002f434    0x20  Code  Gb  MifareEx.o [1]
MifareEx::timer_elapse_read_card()
                        0x0002f100    0x6c  Code  Gb  MifareEx.o [1]
MifareEx::timer_elapse_receive_analyze()
                        0x0002f16c    0xa4  Code  Gb  MifareEx.o [1]
MifareEx::timer_rceive_analyze
                        0x4000edd8    0x14  Data  Gb  MifareEx.o [1]
MifareEx::timer_read_card
                        0x4000edc4    0x14  Data  Gb  MifareEx.o [1]
MifareEx::~MifareEx()   0x0002e398    0x1c  Code  Gb  MifareEx.o [1]
MifareEx::~MifareEx() [internal]
                        0x0002e424    0x1c  Code  Gb  MifareEx.o [1]
MifarePacket::IsValid()
                        0x0004ac78   0x124  Code  Gb  MifarePacket.o [1]
MifarePacket::Make()    0x0004ad9c    0x5c  Code  Gb  MifarePacket.o [1]
MifarePacket::MakeEx(unsigned char *, unsigned char)
                        0x0004adf8    0xb8  Code  Gb  MifarePacket.o [1]
MifarePacket::MifarePacket()
                        0x0004abf4    0x18  Code  Gb  MifarePacket.o [1]
MifarePacket::MifarePacket() [internal]
                        0x0004ac28    0x34  Code  Gb  MifarePacket.o [1]
MifarePacket::SetCommand(unsigned char)
                        0x0004aed4    0x24  Code  Gb  MifarePacket.o [1]
MifarePacket::SetParam(unsigned char)
                        0x0004aeb0    0x24  Code  Gb  MifarePacket.o [1]
MifarePacket::SetStationID(unsigned char)
                        0x0004aef8    0x24  Code  Gb  MifarePacket.o [1]
MifarePacket::calculate_checksum(int, int)
                        0x0004af1c    0x4c  Code  Gb  MifarePacket.o [1]
MifarePacket::~MifarePacket()
                        0x0004ac0c    0x1c  Code  Gb  MifarePacket.o [1]
MifarePacket::~MifarePacket() [internal]
                        0x0004ac5c    0x1c  Code  Gb  MifarePacket.o [1]
NameDirDot              0x00052e28     0xc  Data  Lc  FAT_Dir.o [4]
NameDirDotDot           0x00052e34     0xc  Data  Lc  FAT_Dir.o [4]
Network::CableIsConnect()
                        0x0003e294    0x20  Code  Gb  Network.o [1]
Network::ClearBuffers()
                        0x0003e1c0    0x1c  Code  Gb  Network.o [1]
Network::ClearReceiveBuffer()
                        0x0003e1ac    0x14  Code  Gb  Network.o [1]
Network::ClearSendBuffer()
                        0x0003e198    0x14  Code  Gb  Network.o [1]
Network::DisableEvents()
                        0x0003e2d8    0xac  Code  Gb  Network.o [1]
Network::GetReceivedData()
                        0x0003e220    0x14  Code  Gb  Network.o [1]
Network::Network()      0x0003e0dc    0x18  Code  Gb  Network.o [1]
Network::Network() [internal]
                        0x0003e158    0x24  Code  Gb  Network.o [1]
Network::Send(Buffer *)
                        0x0003e1dc    0x44  Code  Gb  Network.o [1]
Network::SetConnectCableEvent(void (*)())
                        0x0003e2c0     0xc  Code  Gb  Network.o [1]
Network::SetLocalAddress(unsigned long, unsigned long, unsigned long)
                        0x0003e24c    0x2c  Code  Gb  Network.o [1]
Network::SetLocalGateway(unsigned long)
                        0x0003e278    0x1c  Code  Gb  Network.o [1]
Network::SetReceiveSuccessEvent(void (*)())
                        0x0003e2cc     0xc  Code  Gb  Network.o [1]
Network::SetRemoveCableEvent(void (*)())
                        0x0003e2b4     0xc  Code  Gb  Network.o [1]
Network::SetServerAddress(unsigned long, unsigned long)
                        0x0003e238    0x14  Code  Gb  Network.o [1]
Network::connection_status
                        0x4000f390     0x1  Data  Gb  Network.o [1]
Network::create_critical_tasks()
                        0x0003e3f8    0x88  Code  Gb  Network.o [1]
Network::create_nonecritical_tasks()
                        0x0003e480    0xb8  Code  Gb  Network.o [1]
Network::create_timers()
                        0x0003e538     0x4  Code  Gb  Network.o [1]
Network::disable_interrupts()
                        0x0003e3f0     0x4  Code  Gb  Network.o [1]
Network::disconnect_detection()
                        0x0003e598    0x24  Code  Gb  Network.o [1]
Network::enable         0x4000f391     0x1  Data  Gb  Network.o [1]
Network::enable_interrupts()
                        0x0003e3f4     0x4  Code  Gb  Network.o [1]
Network::ep_accept_fail
                        0x4000f260     0x4  Data  Gb  Network.o [1]
Network::ep_accept_success
                        0x4000f25c     0x4  Data  Gb  Network.o [1]
Network::ep_connect_cable
                        0x4000f24c     0x4  Data  Gb  Network.o [1]
Network::ep_connect_fail
                        0x4000f258     0x4  Data  Gb  Network.o [1]
Network::ep_connect_success
                        0x4000f254     0x4  Data  Gb  Network.o [1]
Network::ep_disconnect  0x4000f250     0x4  Data  Gb  Network.o [1]
Network::ep_invalid_comm_packet_received
                        0x4000f278     0x4  Data  Gb  Network.o [1]
Network::ep_network_resource_failure
                        0x4000f244     0x4  Data  Gb  Network.o [1]
Network::ep_receive_fail
                        0x4000f270     0x4  Data  Gb  Network.o [1]
Network::ep_receive_success
                        0x4000f26c     0x4  Data  Gb  Network.o [1]
Network::ep_remove_cable
                        0x4000f248     0x4  Data  Gb  Network.o [1]
Network::ep_send_fail   0x4000f268     0x4  Data  Gb  Network.o [1]
Network::ep_send_success
                        0x4000f264     0x4  Data  Gb  Network.o [1]
Network::ep_valid_comm_packet_received
                        0x4000f274     0x4  Data  Gb  Network.o [1]
Network::final_initialization()
                        0x0003e3dc     0x4  Code  Gb  Network.o [1]
Network::initial_critical_resources()
                        0x0003e398    0x10  Code  Gb  Network.o [1]
Network::initial_hardware()
                        0x0003e394     0x4  Code  Gb  Network.o [1]
Network::initial_members()
                        0x0003e3b8    0x24  Code  Gb  Network.o [1]
Network::initial_statuses()
                        0x0003e3a8    0x10  Code  Gb  Network.o [1]
Network::internal_send()
                        0x0003e5bc    0x5c  Code  Gb  Network.o [1]
Network::local_port     0x4000f23c     0x4  Data  Gb  Network.o [1]
Network::receive_packet
                        0x4000e378    0x94  Data  Gb  Network.o [1]
Network::resume_nonecritical_tasks()
                        0x0003e560    0x24  Code  Gb  Network.o [1]
Network::send_packet    0x4000e2e4    0x94  Data  Gb  Network.o [1]
Network::server_ip      0x4000f234     0x4  Data  Gb  Network.o [1]
Network::server_port    0x4000f238     0x4  Data  Gb  Network.o [1]
Network::set_enable_flag(bool)
                        0x0003e3e0    0x10  Code  Gb  Network.o [1]
Network::socket         0x4000f240     0x4  Data  Gb  Network.o [1]
Network::stack_accept   0x4000bc88   0x400  Data  Gb  Network.o [1]
Network::stack_common   0x4000ce88   0x200  Data  Gb  Network.o [1]
Network::stack_ip       0x4000b888   0x400  Data  Gb  Network.o [1]
Network::stack_receive  0x400095d8   0x800  Data  Gb  Network.o [1]
Network::stack_rx       0x4000cc88   0x200  Data  Gb  Network.o [1]
Network::stack_send     0x4000d088   0x200  Data  Gb  Network.o [1]
Network::start_timers()
                        0x0003e590     0x4  Code  Gb  Network.o [1]
Network::stop_timers()  0x0003e594     0x4  Code  Gb  Network.o [1]
Network::suspend_nonecritical_tasks()
                        0x0003e53c    0x24  Code  Gb  Network.o [1]
Network::task_accept()  0x0003e6a8   0x140  Code  Gb  Network.o [1]
Network::task_common()  0x0003e618    0x78  Code  Gb  Network.o [1]
Network::task_receive()
                        0x0003e888    0x9c  Code  Gb  Network.o [1]
Network::task_send()    0x0003e7f8    0x88  Code  Gb  Network.o [1]
Network::tcb_accept     0x4000e93c    0x38  Data  Gb  Network.o [1]
Network::tcb_common     0x4000e904    0x38  Data  Gb  Network.o [1]
Network::tcb_ip         0x4000e894    0x38  Data  Gb  Network.o [1]
Network::tcb_receive    0x4000e9ac    0x38  Data  Gb  Network.o [1]
Network::tcb_rx         0x4000e8cc    0x38  Data  Gb  Network.o [1]
Network::tcb_send       0x4000e974    0x38  Data  Gb  Network.o [1]
Network::~Network()     0x0003e0f4    0x1c  Code  Gb  Network.o [1]
Network::~Network() [internal]
                        0x0003e17c    0x1c  Code  Gb  Network.o [1]
NotifyBar::NotifyBar()  0x0003a790    0x18  Code  Gb  Notify.o [1]
NotifyBar::NotifyBar() [internal]
                        0x0003a7c4     0x4  Code  Gb  Notify.o [1]
NotifyBar::Refresh()    0x0003afdc   0x1e0  Code  Gb  Notify.o [1]
NotifyBar::ShowMessageInvertTemporarily(string)
                        0x0003af7c    0x60  Code  Gb  Notify.o [1]
NotifyBar::TurnAllIcons(Power)
                        0x0003a7cc    0xc8  Code  Gb  Notify.o [1]
NotifyBar::TurnKeyIcon(Power)
                        0x0003a940    0xdc  Code  Gb  Notify.o [1]
NotifyBar::TurnLANIcon(Power)
                        0x0003ac10   0x118  Code  Gb  Notify.o [1]
NotifyBar::TurnModeIcon(Power)
                        0x0003ad28   0x120  Code  Gb  Notify.o [1]
NotifyBar::TurnModemIcon(Power)
                        0x0003ae48   0x134  Code  Gb  Notify.o [1]
NotifyBar::TurnSaveIcon(Power)
                        0x0003aa1c    0xf0  Code  Gb  Notify.o [1]
NotifyBar::TurnSoundIcon(Power)
                        0x0003a894    0xac  Code  Gb  Notify.o [1]
NotifyBar::TurnUSBIcon(Power)
                        0x0003ab0c   0x104  Code  Gb  Notify.o [1]
NotifyBar::key_icon     0x4000f392     0x1  Data  Gb  Notify.o [1]
NotifyBar::lan_icon     0x4000f393     0x1  Data  Gb  Notify.o [1]
NotifyBar::modem_icon   0x4000f398     0x1  Data  Gb  Notify.o [1]
NotifyBar::save_icon    0x4000f395     0x1  Data  Gb  Notify.o [1]
NotifyBar::smode_icon   0x4000f396     0x1  Data  Gb  Notify.o [1]
NotifyBar::sound_icon   0x4000f397     0x1  Data  Gb  Notify.o [1]
NotifyBar::usb_icon     0x4000f394     0x1  Data  Gb  Notify.o [1]
NotifyBar::~NotifyBar()
                        0x0003a7a8    0x1c  Code  Gb  Notify.o [1]
NotifyBar::~NotifyBar() [internal]
                        0x0003a7c8     0x4  Code  Gb  Notify.o [1]
OS_ARM_DisableISR       0x000453d8    0x3c  Code  Gb  RTOSINIT_LPC2378.o [1]
OS_ARM_EnableISR        0x0004539c    0x3c  Code  Gb  RTOSINIT_LPC2378.o [1]
OS_ARM_ISRSetPrio       0x00045414    0x68  Code  Gb  RTOSINIT_LPC2378.o [1]
OS_ARM_InstallISRHandler
                        0x00045340    0x5c  Code  Gb  RTOSINIT_LPC2378.o [1]
OS_ActivateTask         0x0003be60    0x8c  Code  Gb  OSKERN.o [6]
OS_AssertCPUInISRMode   0x0003bc94    0x4c  Code  Gb  OSKERN.o [6]
OS_AssertISROrTask      0x0003bbc0    0x70  Code  Gb  OSKERN.o [6]
OS_AssertTaskMode       0x0003bc30    0x64  Code  Gb  OSKERN.o [6]
OS_COM_Init             0x00045218     0x4  Code  Gb  RTOSINIT_LPC2378.o [1]
OS_ChangeTask           0x0003c15c   0x2b0  Code  Gb  OSKERN.o [6]
OS_ClearWaitObj         0x00054a08    0x4c  Code  Gb  OS_Wait.o [6]
OS_CreateCSema          0x0004f8f4    0xb0  Code  Gb  OSCSEM.o [6]
OS_CreateRSema          0x0004e13c    0xa4  Code  Gb  OSRSEM.o [6]
OS_CreateTaskEx_D       0x00051014   0x120  Code  Gb  OS_CreateTaskEx.o [6]
OS_CreateTask_D         0x0005124c   0x118  Code  Gb  OS_CreateTask.o [6]
OS_CreateTimer          0x0004d9f8    0x80  Code  Gb  OSTIME.o [6]
OS_DeactivateP          0x000540dc    0x60  Code  Gb  OS_DeactivateP.o [6]
OS_DeactivateTimedP     0x00053adc    0x70  Code  Gb  OS_DeactivateTP.o [6]
OS_Deactivated          0x0003c40c    0x40  Code  Gb  OSKERN.o [6]
OS_DecRegionCnt         0x0003c4ac    0x14  Code  Gb  OSKERN.o [6]
OS_Delay                0x0003c538    0x14  Code  Gb  OSKERN.o [6]
OS_DelayUntil           0x0003c4c4    0x70  Code  Gb  OSKERN.o [6]
OS_DisableInt           0x00056080    0x10  Code  Gb  OSCPU.o [6]
OS_DoRR                 0x0003c0b8    0xa4  Code  Lc  OSKERN.o [6]
OS_EVENT_Create         0x00055c54    0x28  Code  Gb  OS_EVENT_Create.o [6]
OS_EVENT_Delete         0x000531b8    0x8c  Code  Gb  OS_EVENT_Delete.o [6]
OS_EVENT_Pulse          0x00053244    0x8c  Code  Gb  OS_EVENT_Pulse.o [6]
OS_EVENT_Reset          0x000547ec    0x50  Code  Gb  OS_EVENT_Reset.o [6]
OS_EVENT_Set            0x00052bc0    0xa4  Code  Gb  OS_EVENT_Set.o [6]
OS_EVENT_Wait           0x000533e0    0x84  Code  Gb  OS_EVENT_Wait.o [6]
OS_EVENT_WaitTimed      0x000522a0    0xcc  Code  Gb  OS_EVENT_WaitTimed.o [6]
OS_EnableInt            0x00056070    0x10  Code  Gb  OSCPU.o [6]
OS_Error                0x0005455c    0x54  Code  Gb  OS_Error.o [1]
OS_GetCPUState          0x000545b0          Code  Gb  OS_GetCPUState.o [6]
OS_GetIntStackBase      0x00055670     0x8  Code  Gb  OSCPU1.o [6]
OS_GetIntStackSize      0x00055678    0x14  Code  Gb  OSCPU1.o [6]
OS_GetSP                0x0005569c     0x8  Code  Gb  OSCPU1.o [6]
OS_GetSysStackBase      0x00055690     0x8  Code  Gb  OSCPU1.o [6]
OS_GetTaskName          0x00055180    0x3c  Code  Gb  OSINFO.o [6]
OS_GetTimerStatus       0x00055e5c    0x24  Code  Gb  OSTimeGS.o [6]
OS_Global               0x4000f60c    0x24  Data  Gb  OSGLOBAL.o [6]
OS_Idle                 0x00045214     0x4  Code  Gb  RTOSINIT_LPC2378.o [1]
OS_InInt                0x4000f3a4     0x1  Data  Gb  OSGLOBAL.o [6]
OS_InTimer              0x4000f3a5     0x1  Data  Gb  OSGLOBAL.o [6]
OS_InitCalled           0x4000f3a6     0x1  Data  Gb  OSGLOBAL.o [6]
OS_InitHW               0x00045134    0xe0  Code  Gb  RTOSINIT_LPC2378.o [1]
OS_InitKern             0x0003c44c    0x60  Code  Gb  OSKERN.o [6]
OS_InitMode             0x0004f0ec          Code  Gb  rtos.o [6]
OS_InsertTask           0x0003beec    0x88  Code  Gb  OSKERN.o [6]
OS_IsTask               0x0005479c    0x50  Code  Gb  OSISTASK.o [6]
OS_LeaveRegion          0x0003bd08    0x70  Code  Gb  OSKERN.o [6]
OS_MakeTaskReady        0x0003bd9c    0xc4  Code  Gb  OSKERN.o [6]
OS_RemoveTaskFromWaitList
                        0x0003bd78    0x24  Code  Gb  OSKERN.o [6]
OS_RestoreI             0x0003bce0     0x8  Code  Gb  OSKERN.o [6]
OS_Resume               0x00051950    0x6c  Code  Gb  OS_Suspend.o [6]
OS_RetriggerTimer       0x0004da78    0x6c  Code  Gb  OSTIME.o [6]
OS_ReturnFromTask       0x0004efc0          Code  Gb  rtos.o [6]
OS_SignalCSema          0x0004f9a4    0x7c  Code  Gb  OSCSEM.o [6]
OS_Start                0x0004f01c          Code  Gb  rtos.o [6]
OS_StartTask            0x0004efa4          Code  Gb  rtos.o [6]
OS_StartTimer           0x0004dae4    0xc8  Code  Gb  OSTIME.o [6]
OS_Status               0x4000f3a0     0x1  Data  Gb  OSGLOBAL.o [6]
OS_StopTimer            0x0004dbac    0x90  Code  Gb  OSTIME.o [6]
OS_Suspend              0x000518b8    0x98  Code  Gb  OS_Suspend.o [6]
OS_Switch               0x0004efc4          Code  Gb  rtos.o [6]
OS_SwitchAfterISR_ARM   0x0004f088          Code  Gb  rtos.o [6]
OS_SwitchFromInt        0x0004f028          Code  Gb  rtos.o [6]
OS_TICK_Handle          0x00052edc    0x98  Code  Gb  OS_TICK_Handle.o [6]
OS_Terminate            0x00051d8c    0xe4  Code  Gb  OSTERM.o [6]
OS_TickStep             0x4000f3a3     0x1  Data  Gb  OSGLOBAL.o [6]
OS_TickStepTime         0x4000f308     0x4  Data  Gb  OSGLOBAL.o [6]
OS_TimeSlice            0x4000f3a1     0x1  Data  Gb  OSGLOBAL.o [6]
OS_TimeSliceAtStart     0x4000f3a2     0x1  Data  Gb  OSGLOBAL.o [6]
OS_UnlinkTask           0x0003bf74    0x20  Code  Gb  OSKERN.o [6]
OS_Unuse                0x0004e27c    0x84  Code  Gb  OSRSEM.o [6]
OS_Use                  0x0004e1e4    0x98  Code  Gb  OSRSEM.o [6]
OS_WaitCSema            0x0004fa20    0x90  Code  Gb  OSCSEM.o [6]
OS_irq_handler          0x0004523c   0x104  Code  Gb  RTOSINIT_LPC2378.o [1]
OS_pCSema               0x4000f310     0x4  Data  Gb  OSGLOBAL.o [6]
OS_pRSema               0x4000f30c     0x4  Data  Gb  OSGLOBAL.o [6]
OS_pTickHook            0x4000f314     0x4  Data  Gb  OSGLOBAL.o [6]
OS_pfOnTerminate        0x4000f318     0x4  Data  Gb  OSTERM.o [6]
PWM1MR0                 0xe0018018     0x4  Data  Wk  Hardware.o [1]
PWM1MR3                 0xe0018024     0x4  Data  Wk  Hardware.o [1]
PWM1PR                  0xe001800c     0x4  Data  Wk  Hardware.o [1]
Packet::Packet() [internal]
                        0x000537f4    0x24  Code  Gb  Packet.o [1]
Packet::Packet() [subobject]
                        0x000537c0    0x18  Code  Gb  Packet.o [1]
Packet::Packet(const Packet&) [internal]
                        0x00056050    0x20  Code  Gb  COM.o [1]
Packet::Packet(const Packet&) [subobject]
                        0x000565c0    0x18  Code  Gb  COM.o [1]
Packet::operator =(const Packet&)
                        0x00054970    0x4c  Code  Gb  Communication.o [1]
Packet::~Packet() [internal]
                        0x00053818    0x1c  Code  Gb  Packet.o [1]
Packet::~Packet() [subobject]
                        0x000537d8    0x1c  Code  Gb  Packet.o [1]
Personal::AddPerson(PersonInformation)
                        0x00012678    0x80  Code  Gb  Personal.o [1]
Personal::AddPersonInfo(PersonInformation)
                        0x00014dfc   0x220  Code  Gb  Personal.o [1]
Personal::DeleteAllPerson()
                        0x000127ec    0x5c  Code  Gb  Personal.o [1]
Personal::DeleteAllRecords()
                        0x00012848    0x5c  Code  Gb  Personal.o [1]
Personal::DeletePerson(unsigned long)
                        0x00012778    0x74  Code  Gb  Personal.o [1]
Personal::DeleteUser(unsigned long)
                        0x0001501c    0xd4  Code  Gb  Personal.o [1]
Personal::DisableEvents()
                        0x00012998    0x94  Code  Gb  Personal.o [1]
Personal::E_invalid_finger()
                        0x00014c90    0x6c  Code  Gb  Personal.o [1]
Personal::E_valid_finger()
                        0x00014bd8    0xb8  Code  Gb  Personal.o [1]
Personal::EditPerson(PersonInformation)
                        0x000126f8    0x80  Code  Gb  Personal.o [1]
Personal::GetPersonInformation(unsigned long)
                        0x000125f4    0x84  Code  Gb  Personal.o [1]
Personal::HandleCard(unsigned long, PreCard, MifareType)
                        0x00012a5c    0x8c  Code  Gb  Personal.o [1]
Personal::HandleFinger(unsigned long, PreCard)
                        0x00012aec    0x78  Code  Gb  Personal.o [1]
Personal::HandleKey(unsigned long, PreCard)
                        0x00012b64    0x78  Code  Gb  Personal.o [1]
Personal::IsAdministratorFinger(unsigned long)
                        0x00012be0    0x74  Code  Gb  Personal.o [1]
Personal::IsCardRepet(unsigned long)
                        0x00014d7c    0x80  Code  Gb  Personal.o [1]
Personal::IsCardRepetitive(unsigned long)
                        0x00012508    0x74  Code  Gb  Personal.o [1]
Personal::IsCardRepetitiveEx(unsigned long)
                        0x0001257c    0x74  Code  Gb  Personal.o [1]
Personal::IsUserExit(unsigned long)
                        0x00014cfc    0x80  Code  Gb  Personal.o [1]
Personal::PersonIsExist(unsigned long)
                        0x00012490    0x78  Code  Gb  Personal.o [1]
Personal::Personal()    0x0001241c    0x18  Code  Gb  Personal.o [1]
Personal::Personal() [internal]
                        0x00012450    0x24  Code  Gb  Personal.o [1]
Personal::SetAllPersonDeleteFailEvent(void (*)())
                        0x00012920    0x10  Code  Gb  Personal.o [1]
Personal::SetAllPersonDeleteSuccessEvent(void (*)())
                        0x00012910     0xc  Code  Gb  Personal.o [1]
Personal::SetDeleteRecordsEvent(void (*)())
                        0x00012958     0xc  Code  Gb  Personal.o [1]
Personal::SetPersonAddFailEvent(void (*)())
                        0x000128d4     0xc  Code  Gb  Personal.o [1]
Personal::SetPersonAddSuccessEvent(void (*)())
                        0x000128c8     0xc  Code  Gb  Personal.o [1]
Personal::SetPersonDeleteFailEvent(void (*)())
                        0x00012904     0xc  Code  Gb  Personal.o [1]
Personal::SetPersonDeleteSuccessEvent(void (*)())
                        0x000128f8     0xc  Code  Gb  Personal.o [1]
Personal::SetPersonEditFailEvent(void (*)())
                        0x000128ec     0xc  Code  Gb  Personal.o [1]
Personal::SetPersonEditSuccessEvent(void (*)())
                        0x000128e0     0xc  Code  Gb  Personal.o [1]
Personal::SetPersonExistEvent(void (*)())
                        0x000128b0     0xc  Code  Gb  Personal.o [1]
Personal::SetPersonInformationRequestEvent(void (*)(PersonInformation *))
                        0x000128a4     0xc  Code  Gb  Personal.o [1]
Personal::SetPersonIsNotExistEvent(void (*)())
                        0x000128bc     0xc  Code  Gb  Personal.o [1]
Personal::SetRepetitiveCardIDEvent(void (*)())
                        0x00012968     0xc  Code  Gb  Personal.o [1]
Personal::SetSaveTrafficEvent(void (*)(TrafficInformation *))
                        0x00012930     0xc  Code  Gb  Personal.o [1]
Personal::SetTimeoutInputEvent(void (*)())
                        0x0001293c     0xc  Code  Gb  Personal.o [1]
Personal::SetUniqueCardIDEvent(void (*)())
                        0x00012978     0xc  Code  Gb  Personal.o [1]
Personal::SetUniqueCardIDEventEx(void (*)())
                        0x00012988     0xc  Code  Gb  Personal.o [1]
Personal::SetValidAdministratorFingerIDEvent(void (*)())
                        0x0001294c     0xc  Code  Gb  Personal.o [1]
Personal::StopTimers()  0x00012c68    0x34  Code  Gb  Personal.o [1]
Personal::append(char *, char *, const unsigned char *, unsigned long)
                        0x000131a4    0xa0  Code  Gb  Personal.o [1]
Personal::copy_file_section(char *, char *, char *, char *, unsigned long, unsigned long, unsigned long)
                        0x00012fa4   0x178  Code  Gb  Personal.o [1]
Personal::create_directory(char *)
                        0x00013370    0xa0  Code  Gb  Personal.o [1]
Personal::create_file(char *, char *)
                        0x0001311c    0x88  Code  Gb  Personal.o [1]
Personal::create_timers()
                        0x00012ca0    0x24  Code  Gb  Personal.o [1]
Personal::delete_record(char *, char *, char *, unsigned long, unsigned long)
                        0x00013658   0x108  Code  Gb  Personal.o [1]
Personal::edit_record(char *, char *, char *, unsigned long, const unsigned char *, unsigned long)
                        0x00013530   0x128  Code  Gb  Personal.o [1]
Personal::ep_card_is_repetitive
                        0x4000f2bc     0x4  Data  Gb  Personal.o [1]
Personal::ep_card_is_unique
                        0x4000f2b4     0x4  Data  Gb  Personal.o [1]
Personal::ep_card_is_unique_ex
                        0x4000f2b8     0x4  Data  Gb  Personal.o [1]
Personal::ep_get_last_personal
                        0x4000f2c4     0x4  Data  Gb  Personal.o [1]
Personal::ep_get_person_information
                        0x4000f2c0     0x4  Data  Gb  Personal.o [1]
Personal::ep_person_add_fail
                        0x4000f288     0x4  Data  Gb  Personal.o [1]
Personal::ep_person_add_success
                        0x4000f284     0x4  Data  Gb  Personal.o [1]
Personal::ep_person_delete_all_fail
                        0x4000f2a0     0x4  Data  Gb  Personal.o [1]
Personal::ep_person_delete_all_success
                        0x4000f29c     0x4  Data  Gb  Personal.o [1]
Personal::ep_person_delete_fail
                        0x4000f298     0x4  Data  Gb  Personal.o [1]
Personal::ep_person_delete_success
                        0x4000f294     0x4  Data  Gb  Personal.o [1]
Personal::ep_person_edit_fail
                        0x4000f290     0x4  Data  Gb  Personal.o [1]
Personal::ep_person_edit_success
                        0x4000f28c     0x4  Data  Gb  Personal.o [1]
Personal::ep_person_exist
                        0x4000f27c     0x4  Data  Gb  Personal.o [1]
Personal::ep_person_not_exist
                        0x4000f280     0x4  Data  Gb  Personal.o [1]
Personal::ep_records_delete_success
                        0x4000f2b0     0x4  Data  Gb  Personal.o [1]
Personal::ep_save_success
                        0x4000f2a4     0x4  Data  Gb  Personal.o [1]
Personal::ep_time_out_input
                        0x4000f2a8     0x4  Data  Gb  Personal.o [1]
Personal::ep_valid_admin_finger
                        0x4000f2ac     0x4  Data  Gb  Personal.o [1]
Personal::first_device_sequence
                        0x4000f39c     0x1  Data  Gb  Personal.o [1]
Personal::get_appropriate_message(PersonalMessage, Language)
                        0x00014a78   0x160  Code  Gb  Personal.o [1]
Personal::get_person_information(unsigned long)
                        0x00013244   0x12c  Code  Gb  Personal.o [1]
Personal::get_records_count(char *, char *, int)
                        0x00012d48    0xac  Code  Gb  Personal.o [1]
Personal::initial_members()
                        0x00012c9c     0x4  Code  Gb  Personal.o [1]
Personal::insert_record(char *, char *, char *, unsigned long, const unsigned char *, unsigned long)
                        0x00013410   0x120  Code  Gb  Personal.o [1]
Personal::is_file_exist(char *, char *)
                        0x00012cc8    0x80  Code  Gb  Personal.o [1]
Personal::mifareType    0x4000f39b     0x1  Data  Gb  Personal.o [1]
Personal::person_pre_card
                        0x4000f39a     0x1  Data  Gb  Personal.o [1]
Personal::pti           0x4000f399     0x1  Data  Gb  Personal.o [1]
Personal::save_traffic(TrafficInformation)
                        0x00014754   0x2d4  Code  Gb  Personal.o [1]
Personal::search(char *, char *, unsigned long, int)
                        0x00012df4   0x1b0  Code  Gb  Personal.o [1]
Personal::stack_get_person_information_task
                        0x40008ae8   0xaf0  Data  Gb  Personal.o [1]
Personal::stack_main_task
                        0x40007cd8   0xe10  Data  Gb  Personal.o [1]
Personal::task_get_person_information(void *)
                        0x00013760    0x80  Code  Gb  Personal.o [1]
Personal::task_main(void *)
                        0x000137e0   0xf74  Code  Gb  Personal.o [1]
Personal::tcb_get_person_information_task
                        0x4000ea1c    0x38  Data  Gb  Personal.o [1]
Personal::tcb_main_task
                        0x4000e9e4    0x38  Data  Gb  Personal.o [1]
Personal::ti            0x4000efe8     0xc  Data  Gb  Personal.o [1]
Personal::timer_elapse_save()
                        0x00014a28    0x50  Code  Gb  Personal.o [1]
Personal::timer_save    0x4000ee14    0x14  Data  Gb  Personal.o [1]
Personal::~Personal()   0x00012434    0x1c  Code  Gb  Personal.o [1]
Personal::~Personal() [internal]
                        0x00012474    0x1c  Code  Gb  Personal.o [1]
Prefetch_Handler        0x000573ac          Code  Wk  vectortrap.o [7]
Region$$Table$$Base     0x00055ea4           --   Gb  - Linker created -
Region$$Table$$Limit    0x00055ed0           --   Gb  - Linker created -
S0SPDR                  0xe0020008     0x2  Data  Wk  Hardware.o [1]
SHT$$INIT_ARRAY$$Base   0x00055e80           --   Gb  - Linker created -
SHT$$INIT_ARRAY$$Limit  0x00055ea4           --   Gb  - Linker created -
SHT$$PREINIT_ARRAY$$Base
                        0x00055e80           --   Gb  - Linker created -
SHT$$PREINIT_ARRAY$$Limit
                        0x00055e80           --   Gb  - Linker created -
SWI_Handler             0x0004f190          Code  Wk  rtos.o [6]
Setting::DisableEvents()
                        0x000366a4    0x1c  Code  Gb  Setting.o [1]
Setting::GetSettings()  0x00036654    0x18  Code  Gb  Setting.o [1]
Setting::LoadFactorySettings()
                        0x000366e0   0x1c8  Code  Gb  Setting.o [1]
Setting::SaveSettings()
                        0x00036034    0x5c  Code  Gb  Setting.o [1]
Setting::SaveSettingsforCOMMService()
                        0x00036090    0x5c  Code  Gb  Setting.o [1]
Setting::SetAddressMask(unsigned long)
                        0x000365dc    0x44  Code  Gb  Setting.o [1]
Setting::SetAlarmPeriod(int)
                        0x000364b0    0x34  Code  Gb  Setting.o [1]
Setting::SetCommandExecuteFailEvent(void (*)())
                        0x00036678     0xc  Code  Gb  Setting.o [1]
Setting::SetCommandExecuteFailEventforCOMMService(void (*)())
                        0x00036694     0xc  Code  Gb  Setting.o [1]
Setting::SetCommandExecuteSuccessEvent(void (*)())
                        0x0003666c     0xc  Code  Gb  Setting.o [1]
Setting::SetCommandExecuteSuccessEventforCOMMService(void (*)())
                        0x00036684     0xc  Code  Gb  Setting.o [1]
Setting::SetDate(RTCTime)
                        0x00036170    0x74  Code  Gb  Setting.o [1]
Setting::SetDeviceID(unsigned long)
                        0x00036620    0x10  Code  Gb  Setting.o [1]
Setting::SetDeviceIP(unsigned long)
                        0x00036554    0x44  Code  Gb  Setting.o [1]
Setting::SetDeviceMode(PersonalIdentifyScenario)
                        0x0003663c     0xc  Code  Gb  Setting.o [1]
Setting::SetDevicePort(unsigned long)
                        0x00036598    0x44  Code  Gb  Setting.o [1]
Setting::SetDevicePreCard(PreCard)
                        0x00036648     0xc  Code  Gb  Setting.o [1]
Setting::SetFingerFreeScanActivity(Activity)
                        0x000361e4    0x28  Code  Gb  Setting.o [1]
Setting::SetFirstDailyAlarm(RTCTime)
                        0x000362b8    0x44  Code  Gb  Setting.o [1]
Setting::SetFirstDailyAlarmActivity(Activity)
                        0x00036210    0x38  Code  Gb  Setting.o [1]
Setting::SetFirstDailyAlarmMessage(string)
                        0x00036384    0x64  Code  Gb  Setting.o [1]
Setting::SetGatewaye(unsigned long)
                        0x00036520    0x34  Code  Gb  Setting.o [1]
Setting::SetPassword(unsigned long)
                        0x00036630     0xc  Code  Gb  Setting.o [1]
Setting::SetSecondDailyAlarm(RTCTime)
                        0x000362fc    0x44  Code  Gb  Setting.o [1]
Setting::SetSecondDailyAlarmActivity(Activity)
                        0x00036248    0x38  Code  Gb  Setting.o [1]
Setting::SetSecondDailyAlarmMessage(string)
                        0x000363e8    0x64  Code  Gb  Setting.o [1]
Setting::SetServerIP(unsigned long)
                        0x000364e4    0x3c  Code  Gb  Setting.o [1]
Setting::SetSoundActivity(Activity)
                        0x0003620c     0x4  Code  Gb  Setting.o [1]
Setting::SetSpecialAlarm(RTCTime)
                        0x00036340    0x44  Code  Gb  Setting.o [1]
Setting::SetSpecialAlarmActivity(Activity)
                        0x00036280    0x38  Code  Gb  Setting.o [1]
Setting::SetSpecialAlarmMessage(string)
                        0x0003644c    0x64  Code  Gb  Setting.o [1]
Setting::SetTime(RTCTime)
                        0x000360ec    0x84  Code  Gb  Setting.o [1]
Setting::Setting()      0x00035e8c    0x18  Code  Gb  Setting.o [1]
Setting::Setting() [internal]
                        0x00035ec0    0x24  Code  Gb  Setting.o [1]
Setting::StopTimers()   0x000366c0     0x4  Code  Gb  Setting.o [1]
Setting::UploadEssentialSettings()
                        0x00035f00   0x134  Code  Gb  Setting.o [1]
Setting::create_timers()
                        0x000366dc     0x4  Code  Gb  Setting.o [1]
Setting::ep_command_execute_fail
                        0x4000f2f0     0x4  Data  Gb  Setting.o [1]
Setting::ep_command_execute_fail_for_comm
                        0x4000f2f8     0x4  Data  Gb  Setting.o [1]
Setting::ep_command_execute_success
                        0x4000f2ec     0x4  Data  Gb  Setting.o [1]
Setting::ep_command_execute_success_for_comm
                        0x4000f2f4     0x4  Data  Gb  Setting.o [1]
Setting::initial_members()
                        0x000366c4    0x18  Code  Gb  Setting.o [1]
Setting::restore_settings()
                        0x000368cc   0x16c  Code  Gb  Setting.o [1]
Setting::sema           0x4000ef5c    0x10  Data  Gb  Setting.o [1]
Setting::set            0x4000dbe8    0xa0  Data  Gb  Setting.o [1]
Setting::stack_save_settings
                        0x4000c088   0x400  Data  Gb  Setting.o [1]
Setting::stack_save_settings_for_comm
                        0x4000c488   0x400  Data  Gb  Setting.o [1]
Setting::task_save_settings()
                        0x00036a70    0xc8  Code  Gb  Setting.o [1]
Setting::task_save_settings_for_comm()
                        0x00036b54    0xe4  Code  Gb  Setting.o [1]
Setting::tcb_save_settings
                        0x4000ea54    0x38  Data  Gb  Setting.o [1]
Setting::tcb_save_settings_for_comm
                        0x4000ea8c    0x38  Data  Gb  Setting.o [1]
Setting::~Setting()     0x00035ea4    0x1c  Code  Gb  Setting.o [1]
Setting::~Setting() [internal]
                        0x00035ee4    0x1c  Code  Gb  Setting.o [1]
ShowTime::PlaySound4Hour(bool)
                        0x0004d128     0xc  Code  Gb  ShowTime.o [1]
ShowTime::ShowTime()    0x0004d054    0x18  Code  Gb  ShowTime.o [1]
ShowTime::ShowTime() [internal]
                        0x0004d088     0x4  Code  Gb  ShowTime.o [1]
ShowTime::Start()       0x0004d090    0x58  Code  Gb  ShowTime.o [1]
ShowTime::UpdateNotifyScopePermission(bool)
                        0x0004d110     0xc  Code  Gb  ShowTime.o [1]
ShowTime::UpdateScreenPermission(bool)
                        0x0004d0e8    0x1c  Code  Gb  ShowTime.o [1]
ShowTime::UpdateStatusScopePermission(bool)
                        0x0004d11c     0xc  Code  Gb  ShowTime.o [1]
ShowTime::UpdateViewScopePermission(bool)
                        0x0004d104     0xc  Code  Gb  ShowTime.o [1]
ShowTime::play_sound_4_hour_permission
                        0x4000f39e     0x1  Data  Gb  ShowTime.o [1]
ShowTime::play_sound_4_second_permission
                        0x4000f39d     0x1  Data  Gb  ShowTime.o [1]
ShowTime::stack_showtime
                        0x4000a3d8   0x4b0  Data  Gb  ShowTime.o [1]
ShowTime::task_showtime()
                        0x0004d134   0x194  Code  Gb  ShowTime.o [1]
ShowTime::tcb_showtime  0x4000eac4    0x38  Data  Gb  ShowTime.o [1]
ShowTime::update_notify_permission
                        0x4000f6a1     0x1  Data  Gb  ShowTime.o [1]
ShowTime::update_status_permission
                        0x4000f6a0     0x1  Data  Gb  ShowTime.o [1]
ShowTime::update_view_permission
                        0x4000f69f     0x1  Data  Gb  ShowTime.o [1]
ShowTime::~ShowTime()   0x0004d06c    0x1c  Code  Gb  ShowTime.o [1]
ShowTime::~ShowTime() [internal]
                        0x0004d08c     0x4  Code  Gb  ShowTime.o [1]
Sound::PlayAlarm()      0x0004cdf4    0x44  Code  Gb  Sound.o [1]
Sound::PlayDing()       0x0004ce38    0x44  Code  Gb  Sound.o [1]
Sound::PlayDingDang()   0x0004cf04    0x44  Code  Gb  Sound.o [1]
Sound::PlayInsert()     0x0004ce7c    0x44  Code  Gb  Sound.o [1]
Sound::PlayRemove()     0x0004cec0    0x44  Code  Gb  Sound.o [1]
Sound::Sound()          0x0004cdb8    0x18  Code  Gb  Sound.o [1]
Sound::Sound() [internal]
                        0x0004cdec     0x4  Code  Gb  Sound.o [1]
Sound::activity         0x4000f39f     0x1  Data  Gb  Sound.o [1]
Sound::address          0x4000f304     0x4  Data  Gb  Sound.o [1]
Sound::hardware_timer_expire()
                        0x0004cfac    0x9c  Code  Gb  Sound.o [1]
Sound::index            0x4000f2fc     0x4  Data  Gb  Sound.o [1]
Sound::play()           0x0004cf4c    0x60  Code  Gb  Sound.o [1]
Sound::size             0x4000f300     0x4  Data  Gb  Sound.o [1]
Sound::~Sound()         0x0004cdd0    0x1c  Code  Gb  Sound.o [1]
Sound::~Sound() [internal]
                        0x0004cdf0     0x4  Code  Gb  Sound.o [1]
StatusBar::Clear()      0x0004b494    0x5c  Code  Gb  Status.o [1]
StatusBar::DisableEvents()
                        0x0004b504     0x4  Code  Gb  Status.o [1]
StatusBar::Refresh()    0x0004b454    0x40  Code  Gb  Status.o [1]
StatusBar::ShowMessage(string)
                        0x0004b378    0x74  Code  Gb  Status.o [1]
StatusBar::ShowMessageInvertTemporarily(string)
                        0x0004b3ec    0x68  Code  Gb  Status.o [1]
StatusBar::ShowMessageTemporarily(string)
                        0x0004b338    0x40  Code  Gb  Status.o [1]
StatusBar::StatusBar()  0x0004b2c4    0x18  Code  Gb  Status.o [1]
StatusBar::StatusBar() [internal]
                        0x0004b2f8    0x24  Code  Gb  Status.o [1]
StatusBar::StopTimers()
                        0x0004b4f0    0x14  Code  Gb  Status.o [1]
StatusBar::create_timers()
                        0x0004b50c    0x24  Code  Gb  Status.o [1]
StatusBar::initial_members()
                        0x0004b508     0x4  Code  Gb  Status.o [1]
StatusBar::timer_expire_status()
                        0x0004b534    0xe4  Code  Gb  Status.o [1]
StatusBar::timer_status
                        0x4000ee78    0x14  Data  Gb  Status.o [1]
StatusBar::~StatusBar()
                        0x0004b2dc    0x1c  Code  Gb  Status.o [1]
StatusBar::~StatusBar() [internal]
                        0x0004b31c    0x1c  Code  Gb  Status.o [1]
T1MR0                   0xe0008018     0x4  Data  Wk  Hardware.o [1]
TargetResetInit         0x0004ab78    0x7c  Code  Gb  target.o [1]
U0RBRTHR                0xe000c000     0x1  Data  Wk  Hardware.o [1]
U1RBRTHR                0xe0010000     0x1  Data  Wk  Hardware.o [1]
U2RBRTHR                0xe0078000     0x1  Data  Wk  Hardware.o [1]
U3RBRTHR                0xe007c000     0x1  Data  Wk  Hardware.o [1]
USB::DisableEvents()    0x0004a580    0x1c  Code  Gb  MY_USB.o [1]
USB::GetConnectionStatus()
                        0x0004a558    0x10  Code  Gb  MY_USB.o [1]
USB::SetUSBPlugEvent(void (*)())
                        0x0004a568     0xc  Code  Gb  MY_USB.o [1]
USB::SetUSBUnplugEvent(void (*)())
                        0x0004a574     0xc  Code  Gb  MY_USB.o [1]
USB::USB()              0x0004a4e4    0x18  Code  Gb  MY_USB.o [1]
USB::USB() [internal]   0x0004a518    0x24  Code  Gb  MY_USB.o [1]
USB::connection_status  0x4000f37f     0x1  Data  Gb  MY_USB.o [1]
USB::create_critical_tasks()
                        0x0004a6a8     0x4  Code  Gb  MY_USB.o [1]
USB::create_nonecritical_tasks()
                        0x0004a6ac    0x48  Code  Gb  MY_USB.o [1]
USB::create_timers()    0x0004a6f4     0x4  Code  Gb  MY_USB.o [1]
USB::disable_interrupts()
                        0x0004a6a0     0x4  Code  Gb  MY_USB.o [1]
USB::enable             0x4000f380     0x1  Data  Gb  MY_USB.o [1]
USB::enable_interrupts()
                        0x0004a6a4     0x4  Code  Gb  MY_USB.o [1]
USB::ep_usb_plug        0x4000f1d0     0x4  Data  Gb  MY_USB.o [1]
USB::ep_usb_unplug      0x4000f1d4     0x4  Data  Gb  MY_USB.o [1]
USB::final_initialization()
                        0x0004a68c     0x4  Code  Gb  MY_USB.o [1]
USB::initial_critical_resources()
                        0x0004a5a0    0xcc  Code  Gb  MY_USB.o [1]
USB::initial_hardware()
                        0x0004a59c     0x4  Code  Gb  MY_USB.o [1]
USB::initial_members()  0x0004a67c    0x10  Code  Gb  MY_USB.o [1]
USB::initial_statuses()
                        0x0004a66c    0x10  Code  Gb  MY_USB.o [1]
USB::resume_nonecritical_tasks()
                        0x0004a70c    0x14  Code  Gb  MY_USB.o [1]
USB::set_enable_flag(bool)
                        0x0004a690     0xc  Code  Gb  MY_USB.o [1]
USB::stack_usb          0x4000ac88   0x400  Data  Gb  MY_USB.o [1]
USB::start_timers()     0x0004a724     0x4  Code  Gb  MY_USB.o [1]
USB::stop_timers()      0x0004a728     0x4  Code  Gb  MY_USB.o [1]
USB::suspend_nonecritical_tasks()
                        0x0004a6f8    0x14  Code  Gb  MY_USB.o [1]
USB::task_usb()         0x0004a72c    0xc8  Code  Gb  MY_USB.o [1]
USB::tcb_usb            0x4000e824    0x38  Data  Gb  MY_USB.o [1]
USB::~USB()             0x0004a4fc    0x1c  Code  Gb  MY_USB.o [1]
USB::~USB() [internal]  0x0004a53c    0x1c  Code  Gb  MY_USB.o [1]
USB_AddDriver           0x00034e4c     0xc  Code  Gb  USB_Main.o [9]
USB_AddEP               0x00034644    0xec  Code  Gb  USB_Main.o [9]
USB_Driver_NXPLPC23xx   0x00054ff0    0x44  Data  Gb  USB_HW_LPC23xx.o [9]
USB_GetProductId        0x0004a80c     0xc  Code  Gb  MY_USB.o [1]
USB_GetProductName      0x0004a824     0xc  Code  Gb  MY_USB.o [1]
USB_GetSerialNumber     0x0004a830     0xc  Code  Gb  MY_USB.o [1]
USB_GetState            0x00034eb8     0xc  Code  Gb  USB_Main.o [9]
USB_GetVendorId         0x0004a800     0xc  Code  Gb  MY_USB.o [1]
USB_GetVendorName       0x0004a818     0xc  Code  Gb  MY_USB.o [1]
USB_Global              0x4000d868    0x68  Data  Gb  USB_Main.o [9]
USB_IB_AddU16           0x0003260c    0x1c  Code  Gb  USB_Setup.o [9]
USB_IB_AddU8            0x000325dc    0x30  Code  Gb  USB_Setup.o [9]
USB_IB_Init             0x000325c8    0x14  Code  Gb  USB_Setup.o [9]
USB_Init                0x000347f4    0x54  Code  Gb  USB_Main.o [9]
USB_IsConfigured        0x0003478c    0x14  Code  Gb  USB_Main.o [9]
USB_MSD_Add             0x000291a4    0x94  Code  Gb  USB_MSD.o [9]
USB_MSD_AddUnit         0x00029238    0x60  Code  Gb  USB_MSD.o [9]
USB_MSD_GetProductName  0x0004a84c    0x10  Code  Gb  MY_USB.o [1]
USB_MSD_GetProductVer   0x0004a85c    0x10  Code  Gb  MY_USB.o [1]
USB_MSD_GetSerialNo     0x0004a86c    0x10  Code  Gb  MY_USB.o [1]
USB_MSD_GetVendorName   0x0004a83c    0x10  Code  Gb  MY_USB.o [1]
USB_MSD_SendNULLPacket  0x000292d4    0x1c  Code  Gb  USB_MSD.o [9]
USB_MSD_StallEPIn       0x00029298    0x10  Code  Gb  USB_MSD.o [9]
USB_MSD_StallEPOut      0x000292a8    0x10  Code  Gb  USB_MSD.o [9]
USB_MSD_StorageByName   0x00055f50    0x20  Data  Gb  USB_MSD_STORAGE_FS.o [9]
USB_MSD_Task            0x00029300   0x19c  Code  Gb  USB_MSD.o [9]
USB_MSD_UpdateSenseData
                        0x000292f0    0x10  Code  Gb  USB_MSD.o [9]
USB_MSD_Write           0x000292b8    0x1c  Code  Gb  USB_MSD.o [9]
USB_OS_DecRI            0x00050cd4    0x44  Code  Gb  USB_OS.o [1]
USB_OS_Delay            0x00050cc0    0x14  Code  Gb  USB_OS.o [1]
USB_OS_IncDI            0x00050d18    0x38  Code  Gb  USB_OS.o [1]
USB_OS_Init             0x00050c90    0x30  Code  Gb  USB_OS.o [1]
USB_OS_Panic            0x00050dbc     0xc  Code  Gb  USB_OS.o [1]
USB_OS_Signal           0x00050d54    0x1c  Code  Gb  USB_OS.o [1]
USB_OS_Wait             0x00050d70    0x1c  Code  Gb  USB_OS.o [1]
USB_OS_WaitTimed        0x00050d8c    0x2c  Code  Gb  USB_OS.o [1]
USB_ReadEP              0x000349e8    0x34  Code  Gb  USB_Main.o [9]
USB_ReceiveEP           0x00034a1c     0x8  Code  Gb  USB_Main.o [9]
USB_SetClassRequestHook
                        0x00034ba4    0x14  Code  Gb  USB_Main.o [9]
USB_SetClrStallEP       0x00034e24    0x20  Code  Gb  USB_Main.o [9]
USB_SetOnSetupHook      0x00034bb8    0x14  Code  Gb  USB_Main.o [9]
USB_StallEP             0x00034e44     0x8  Code  Gb  USB_Main.o [9]
USB_Start               0x00034848    0x70  Code  Gb  USB_Main.o [9]
USB_WriteEP             0x00034b44    0x60  Code  Gb  USB_Main.o [9]
USB_WriteEPOverlapped   0x00034a44   0x100  Code  Gb  USB_Main.o [9]
USB_X_AddDriver         0x00050108    0x14  Code  Gb  USB_Config_LPC2378.o [1]
USB_X_EnableISR         0x000501f0    0x2c  Code  Gb  USB_Config_LPC2378.o [1]
USB_X_HWAttach          0x000500bc    0x4c  Code  Gb  USB_Config_LPC2378.o [1]
USB__AllocIF            0x00035068    0x3c  Code  Gb  USB_Main.o [9]
USB__BuildConfigDesc    0x00032f18   0x21c  Code  Gb  USB_Setup.o [9]
USB__BuildDeviceDesc    0x00033134    0xd0  Code  Gb  USB_Setup.o [9]
USB__CalcMaxPacketSize  0x00034f6c    0x20  Code  Gb  USB_Main.o [9]
USB__EPAddr2Index       0x00034730    0x48  Code  Gb  USB_Main.o [9]
USB__EPIndex2Addr       0x00034778    0x14  Code  Gb  USB_Main.o [9]
USB__GetU16BE           0x00035010    0x10  Code  Gb  USB_Main.o [9]
USB__GetU32BE           0x00034fcc    0x24  Code  Gb  USB_Main.o [9]
USB__GetU32LE           0x00034ff0    0x20  Code  Gb  USB_Main.o [9]
USB__HandleSetup        0x00033270   0x150  Code  Gb  USB_Setup.o [9]
USB__InvalidateEP       0x000350a4    0x38  Code  Gb  USB_Main.o [9]
USB__IsHighSpeedCapable
                        0x00035020    0x24  Code  Gb  USB_Main.o [9]
USB__IsHighSpeedMode    0x00035044    0x24  Code  Gb  USB_Main.o [9]
USB__OnBusReset         0x00034e5c    0x5c  Code  Gb  USB_Main.o [9]
USB__OnResume           0x00034ed4    0x10  Code  Gb  USB_Main.o [9]
USB__OnRx               0x00034bcc    0xcc  Code  Gb  USB_Main.o [9]
USB__OnStatusChange     0x00034ee8    0x80  Code  Gb  USB_Main.o [9]
USB__OnSuspend          0x00034ec4    0x10  Code  Gb  USB_Main.o [9]
USB__OnTx               0x00034d74    0xb0  Code  Gb  USB_Main.o [9]
USB__OnTx0Done          0x00033220    0x50  Code  Gb  USB_Setup.o [9]
USB__Send               0x00034c98    0xdc  Code  Gb  USB_Main.o [9]
USB__StoreU32BE         0x00034f8c    0x20  Code  Gb  USB_Main.o [9]
USB__StoreU32LE         0x00034fac    0x20  Code  Gb  USB_Main.o [9]
USB__UpdateEPHW         0x000347a0    0x54  Code  Gb  USB_Main.o [9]
USB__WriteEP0FromISR    0x00034a24    0x20  Code  Gb  USB_Main.o [9]
USB_aEPStat             0x4000d748   0x120  Data  Gb  USB_Main.o [9]
Undefined_Handler       0x000573ac          Code  Wk  vectortrap.o [7]
Utility::Delay_ms()     0x0004afc4    0x18  Code  Gb  Utility.o [1]
Utility::Delay_ms(int)  0x0004afa4    0x20  Code  Gb  Utility.o [1]
Utility::Delay_us()     0x0004b00c    0x1c  Code  Gb  Utility.o [1]
Utility::Delay_us(int)  0x0004afdc    0x30  Code  Gb  Utility.o [1]
Utility::ReverseString(string &)
                        0x0004b1c4    0x8c  Code  Gb  Utility.o [1]
Utility::SafeCallHandler(void (*)())
                        0x0004b068    0x1c  Code  Gb  Utility.o [1]
Utility::ToChar(int)    0x0004b250    0x28  Code  Gb  Utility.o [1]
Utility::ToCharArray(string, char *)
                        0x0004b278    0x4c  Code  Gb  Utility.o [1]
Utility::ToString(unsigned long)
                        0x0004b084    0x84  Code  Gb  Utility.o [1]
Utility::ToString(unsigned long, int)
                        0x0004b108    0xbc  Code  Gb  Utility.o [1]
Utility::Utility()      0x0004af68    0x18  Code  Gb  Utility.o [1]
Utility::Utility() [internal]
                        0x0004af9c     0x4  Code  Gb  Utility.o [1]
Utility::strn_cmp(char *, const char *, int)
                        0x0004b028    0x40  Code  Gb  Utility.o [1]
Utility::~Utility()     0x0004af80    0x1c  Code  Gb  Utility.o [1]
Utility::~Utility() [internal]
                        0x0004afa0     0x4  Code  Gb  Utility.o [1]
VICADDRESS              0xffffff00     0x4  Data  Wk  Hardware.o [1]
View::DisableEvents()   0x0004c9b8     0x4  Code  Gb  View.o [1]
View::Refresh()         0x0004c998    0x20  Code  Gb  View.o [1]
View::ShowInvertMessageTemporarily(string)
                        0x0004c8d8    0xc0  Code  Gb  View.o [1]
View::StopTimers()      0x0004c9bc    0x14  Code  Gb  View.o [1]
View::View()            0x0004c864    0x18  Code  Gb  View.o [1]
View::View() [internal]
                        0x0004c898    0x24  Code  Gb  View.o [1]
View::create_timers()   0x0004c9d4    0x24  Code  Gb  View.o [1]
View::initial_members()
                        0x0004c9d0     0x4  Code  Gb  View.o [1]
View::timer_expire_view()
                        0x0004c9fc   0x114  Code  Gb  View.o [1]
View::timer_view        0x4000ee8c    0x14  Data  Gb  View.o [1]
View::~View()           0x0004c87c    0x1c  Code  Gb  View.o [1]
View::~View() [internal]
                        0x0004c8bc    0x1c  Code  Gb  View.o [1]
Virtual function table for Alarm
                        0x00056290    0x18  Data  Gb  Alarm.o [1]
Virtual function table for BackLight
                        0x00056638    0x14  Data  Gb  BackLight.o [1]
Virtual function table for COM
                        0x00054aa0    0x48  Data  Gb  COM.o [1]
Virtual function table for CommunicationPacket
                        0x00056688    0x14  Data  Gb  CommunicationPacket.o [1]
Virtual function table for DAC
                        0x000566c4    0x14  Data  Gb  DAC.o [1]
Virtual function table for Finger
                        0x00054ae8    0x48  Data  Gb  Finger.o [1]
Virtual function table for FingerPacket
                        0x000566d8    0x14  Data  Gb  FingerPacket.o [1]
Virtual function table for Key
                        0x00054b30    0x48  Data  Gb  Key.o [1]
Virtual function table for LCD
                        0x00056700    0x14  Data  Gb  LCD.o [1]
Virtual function table for LED
                        0x00056714    0x14  Data  Gb  LED.o [1]
Virtual function table for Menu
                        0x000562d8    0x18  Data  Gb  Menu.o [1]
Virtual function table for Mifare
                        0x00054bc0    0x48  Data  Gb  Mifare.o [1]
Virtual function table for MifareEx
                        0x00054c08    0x48  Data  Gb  MifareEx.o [1]
Virtual function table for MifarePacket
                        0x00056930    0x14  Data  Gb  MifarePacket.o [1]
Virtual function table for Network
                        0x00054c50    0x48  Data  Gb  Network.o [1]
Virtual function table for Packet
                        0x00056994    0x14  Data  Gb  Packet.o [1]
Virtual function table for Personal
                        0x000563e0    0x18  Data  Gb  Personal.o [1]
Virtual function table for Setting
                        0x00056458    0x18  Data  Gb  Setting.o [1]
Virtual function table for StatusBar
                        0x00056470    0x18  Data  Gb  Status.o [1]
Virtual function table for USB
                        0x00054b78    0x48  Data  Gb  MY_USB.o [1]
Virtual function table for View
                        0x00056488    0x18  Data  Gb  View.o [1]
_A_AMR                  0xe0024010     0x4  Data  Wk  Hardware.o [1]
_A_CCLKCFG              0xe01fc104     0x4  Data  Wk  target.o [1]
_A_CCR                  0xe0024008     0x4  Data  Wk  Hardware.o [1]
_A_CISS                 0xe0024040     0x4  Data  Wk  Hardware.o [1]
_A_CLKSRCSEL            0xe01fc10c     0x4  Data  Wk  target.o [1]
_A_DACR                 0xe006c000     0x4  Data  Wk  Hardware.o [1]
_A_DOM                  0xe002402c     0x4  Data  Wk  Hardware.o [1]
_A_DOW                  0xe0024030     0x4  Data  Wk  Hardware.o [1]
_A_DOY                  0xe0024034     0x4  Data  Wk  Hardware.o [1]
_A_EXTMODE              0xe01fc148     0x4  Data  Wk  Hardware.o [1]
_A_EXTPOLAR             0xe01fc14c     0x4  Data  Wk  Hardware.o [1]
_A_FIO0CLR              0x3fffc01c     0x4  Data  Wk  Hardware.o [1]
_A_FIO0DIR              0x3fffc000     0x4  Data  Wk  Hardware.o [1]
_A_FIO0MASK             0x3fffc010     0x4  Data  Wk  BSP.o [1]
_A_FIO0PIN              0x3fffc014     0x4  Data  Wk  Hardware.o [1]
_A_FIO0SET              0x3fffc018     0x4  Data  Wk  Hardware.o [1]
_A_FIO1CLR              0x3fffc03c     0x4  Data  Wk  Hardware.o [1]
_A_FIO1DIR              0x3fffc020     0x4  Data  Wk  Hardware.o [1]
_A_FIO1MASK             0x3fffc030     0x4  Data  Wk  BSP.o [1]
_A_FIO1PIN              0x3fffc034     0x4  Data  Wk  Hardware.o [1]
_A_FIO2CLR              0x3fffc05c     0x4  Data  Wk  Hardware.o [1]
_A_FIO2DIR              0x3fffc040     0x4  Data  Wk  Hardware.o [1]
_A_FIO2MASK             0x3fffc050     0x4  Data  Wk  BSP.o [1]
_A_FIO2SET              0x3fffc058     0x4  Data  Wk  Hardware.o [1]
_A_FIO3CLR              0x3fffc07c     0x4  Data  Wk  Hardware.o [1]
_A_FIO3DIR              0x3fffc060     0x4  Data  Wk  Hardware.o [1]
_A_FIO3MASK             0x3fffc070     0x4  Data  Wk  BSP.o [1]
_A_FIO3PIN              0x3fffc074     0x4  Data  Wk  Hardware.o [1]
_A_FIO3SET              0x3fffc078     0x4  Data  Wk  Hardware.o [1]
_A_FIO4CLR              0x3fffc09c     0x4  Data  Wk  Hardware.o [1]
_A_FIO4DIR              0x3fffc080     0x4  Data  Wk  Hardware.o [1]
_A_FIO4MASK             0x3fffc090     0x4  Data  Wk  BSP.o [1]
_A_FIO4SET              0x3fffc098     0x4  Data  Wk  Hardware.o [1]
_A_HOUR                 0xe0024028     0x4  Data  Wk  Hardware.o [1]
_A_ILR                  0xe0024000     0x4  Data  Wk  Hardware.o [1]
_A_IO0DIR               0xe0028008     0x4  Data  Wk  target.o [1]
_A_IO0INTCLR            0xe002808c     0x4  Data  Wk  Hardware.o [1]
_A_IO0INTENF            0xe0028094     0x4  Data  Wk  Hardware.o [1]
_A_IO1DIR               0xe0028018     0x4  Data  Wk  target.o [1]
_A_MAMCR                0xe01fc000     0x4  Data  Wk  target.o [1]
_A_MAMTIM               0xe01fc004     0x4  Data  Wk  target.o [1]
_A_MIN                  0xe0024024     0x4  Data  Wk  Hardware.o [1]
_A_MONTH                0xe0024038     0x4  Data  Wk  Hardware.o [1]
_A_PCLKSEL0             0xe01fc1a8     0x4  Data  Wk  Hardware.o [1]
_A_PCLKSEL1             0xe01fc1ac     0x4  Data  Wk  target.o [1]
_A_PCONP                0xe01fc0c4     0x4  Data  Wk  Hardware.o [1]
_A_PINSEL0              0xe002c000     0x4  Data  Wk  Hardware.o [1]
_A_PINSEL1              0xe002c004     0x4  Data  Wk  Hardware.o [1]
_A_PINSEL10             0xe002c028     0x4  Data  Wk  target.o [1]
_A_PINSEL2              0xe002c008     0x4  Data  Wk  Hardware.o [1]
_A_PINSEL3              0xe002c00c     0x4  Data  Wk  Hardware.o [1]
_A_PINSEL4              0xe002c010     0x4  Data  Wk  Hardware.o [1]
_A_PINSEL5              0xe002c014     0x4  Data  Wk  target.o [1]
_A_PINSEL6              0xe002c018     0x4  Data  Wk  Hardware.o [1]
_A_PINSEL7              0xe002c01c     0x4  Data  Wk  Hardware.o [1]
_A_PINSEL8              0xe002c020     0x4  Data  Wk  Hardware.o [1]
_A_PINSEL9              0xe002c024     0x4  Data  Wk  Hardware.o [1]
_A_PLLCFG               0xe01fc084     0x4  Data  Wk  target.o [1]
_A_PLLCON               0xe01fc080     0x4  Data  Wk  target.o [1]
_A_PLLFEED              0xe01fc08c     0x4  Data  Wk  target.o [1]
_A_PLLSTAT              0xe01fc088     0x4  Data  Wk  target.o [1]
_A_PREFRAC              0xe0024084     0x4  Data  Wk  Hardware.o [1]
_A_PREINT               0xe0024080     0x4  Data  Wk  Hardware.o [1]
_A_PWM1CTCR             0xe0018070     0x4  Data  Wk  Hardware.o [1]
_A_PWM1LER              0xe0018050     0x4  Data  Wk  Hardware.o [1]
_A_PWM1MCR              0xe0018014     0x4  Data  Wk  Hardware.o [1]
_A_PWM1PCR              0xe001804c     0x4  Data  Wk  Hardware.o [1]
_A_PWM1TCR              0xe0018004     0x4  Data  Wk  Hardware.o [1]
_A_S0SPCCR              0xe002000c     0x4  Data  Wk  Hardware.o [1]
_A_S0SPCR               0xe0020000     0x4  Data  Wk  Hardware.o [1]
_A_S0SPSR               0xe0020004     0x4  Data  Wk  Hardware.o [1]
_A_SCS                  0xe01fc1a0     0x4  Data  Wk  Hardware.o [1]
_A_SEC                  0xe0024020     0x4  Data  Wk  Hardware.o [1]
_A_T1IR                 0xe0008000     0x4  Data  Wk  Hardware.o [1]
_A_T1MCR                0xe0008014     0x4  Data  Wk  Hardware.o [1]
_A_T1TCR                0xe0008004     0x4  Data  Wk  Hardware.o [1]
_A_U0FCR                0xe000c008     0x4  Data  Wk  Hardware.o [1]
_A_U0IER                0xe000c004     0x4  Data  Wk  Hardware.o [1]
_A_U0LCR                0xe000c00c     0x4  Data  Wk  Hardware.o [1]
_A_U0LSR                0xe000c014     0x4  Data  Wk  Hardware.o [1]
_A_U1FCR                0xe0010008     0x4  Data  Wk  Hardware.o [1]
_A_U1IER                0xe0010004     0x4  Data  Wk  Hardware.o [1]
_A_U1LCR                0xe001000c     0x4  Data  Wk  Hardware.o [1]
_A_U1LSR                0xe0010014     0x4  Data  Wk  Hardware.o [1]
_A_U1MCR                0xe0010010     0x4  Data  Wk  Hardware.o [1]
_A_U1MSR                0xe0010018     0x4  Data  Wk  COM.o [1]
_A_U2FCR                0xe0078008     0x4  Data  Wk  Hardware.o [1]
_A_U2IER                0xe0078004     0x4  Data  Wk  Hardware.o [1]
_A_U2LCR                0xe007800c     0x4  Data  Wk  Hardware.o [1]
_A_U2LSR                0xe0078014     0x4  Data  Wk  Hardware.o [1]
_A_U3FCR                0xe007c008     0x4  Data  Wk  Hardware.o [1]
_A_U3IER                0xe007c004     0x4  Data  Wk  Hardware.o [1]
_A_U3LCR                0xe007c00c     0x4  Data  Wk  Hardware.o [1]
_A_U3LSR                0xe007c014     0x4  Data  Wk  Hardware.o [1]
_A_USBCLKCFG            0xe01fc108     0x4  Data  Wk  target.o [1]
_A_YEAR                 0xe002403c     0x4  Data  Wk  Hardware.o [1]
_ActiveChannel          0x4000f170     0x4  Data  Lc  JLINKDCC_ProcessV2.o [1]
_AddBufferIndex         0x4000f324     0x4  Data  Lc  IP_Core.o [5]
_Addr                   0x4000f164     0x4  Data  Lc  JLINKDCC_ProcessV2.o [1]
_AllCardId              0x4000ef8c    0x10  Data  Lc  MMC_SD_CardMode_Drv.o [4]
_AllocEP                0x00040ef8    0x98  Code  Lc  USB_HW_LPC23xx.o [9]
_ApplyCSD               0x0002f958   0x1e0  Code  Lc  MMC_SD_CardMode_Drv.o [4]
_Attach                 0x00040ed8    0x20  Code  Lc  USB_HW_LPC23xx.o [9]
_BlockSize              0x4000f0d4     0x4  Data  Lc  FS_MMC_HW_MCI.o [1]
_BuildDeviceQualDesc    0x0003285c    0x90  Code  Lc  USB_Setup.o [9]
_BuildOptions           0x0003cec4    0xd8  Code  Lc  IP_TCP_out.o [5]
_BuildOtherSpeedConfigDesc
                        0x00032634   0x228  Code  Lc  USB_Setup.o [9]
_BuildStringDesc        0x00032930    0xc4  Code  Lc  USB_Setup.o [9]
_CalcCHSInfo            0x00047dac   0x100  Code  Lc  FAT_FormatSD.o [4]
_CalcFormatInfo         0x00047eac   0x180  Code  Lc  FAT_FormatSD.o [4]
_CalcInterval           0x00032538    0x90  Code  Lc  USB_Setup.o [9]
_CalcMaxPacketSizeBulk  0x00034384    0x70  Code  Lc  USB_Main.o [9]
_CalcMaxPacketSizeInt   0x00034368    0x1c  Code  Lc  USB_Main.o [9]
_CalcMaxPacketSizeIso   0x0003433c    0x2c  Code  Lc  USB_Main.o [9]
_CheckBPB               0x000308a4   0x2a0  Code  Lc  FAT_Misc.o [4]
_CheckCmd               0x00028ad4   0x238  Code  Lc  USB_MSD.o [9]
_CheckDelays            0x0003bf94   0x124  Code  Lc  OSKERN.o [6]
_Close_all              0x00056ec0    0x10  Code  Gb  xcloseall.o [3]
_ClrStallEPIn           0x00027e54     0x8  Code  Lc  USB_MSD.o [9]
_ClrStallEPOut          0x00027e5c     0x4  Code  Lc  USB_MSD.o [9]
_CmdClearFeature        0x00032d34     0x8  Code  Lc  USB_Setup.o [9]
_CmdGetConfiguration    0x00032d44    0x10  Code  Lc  USB_Setup.o [9]
_CmdGetDescriptor       0x00032a80    0xc8  Code  Lc  USB_Setup.o [9]
_CmdGetInterface        0x00032d54    0x50  Code  Lc  USB_Setup.o [9]
_CmdGetStatus           0x00032b48   0x100  Code  Lc  USB_Setup.o [9]
_CmdSetAddress          0x00032a28    0x58  Code  Lc  USB_Setup.o [9]
_CmdSetConfiguration    0x00032e44    0xd4  Code  Lc  USB_Setup.o [9]
_CmdSetFeature          0x00032d3c     0x8  Code  Lc  USB_Setup.o [9]
_CmdSetInterface        0x00032dbc    0x88  Code  Lc  USB_Setup.o [9]
_Command                0x4000f160     0x4  Data  Lc  JLINKDCC_ProcessV2.o [1]
_ConfigEP               0x00040978    0x40  Code  Lc  USB_HW_LPC23xx.o [9]
_Control                0x0004250c    0xd4  Code  Lc  IP_NI_LPC24xx.o [5]
_Control                0x00041018    0x40  Code  Lc  USB_HW_LPC23xx.o [9]
_CountBits              0x00032514    0x24  Code  Lc  USB_Setup.o [9]
_CreatePartition        0x00047ca8   0x104  Code  Lc  FAT_FormatSD.o [4]
_DMAInit()              0x0003b268    0x54  Code  Lc  FS_MMC_HW_MCI.o [1]
_DMAStart(unsigned long *, unsigned long *, unsigned long, unsigned char)
                        0x0003b2bc    0xb8  Code  Lc  FS_MMC_HW_MCI.o [1]
_Data                   0x4000f178     0x4  Data  Lc  JLINKDCC_ProcessV2.o [1]
_DataControlReg         0x4000f0d8     0x4  Data  Lc  FS_MMC_HW_MCI.o [1]
_DeInit                 0x0004e768    0x18  Code  Lc  USB_MSD_STORAGE_FS.o [9]
_DeSelectCard           0x0002f5fc    0x34  Code  Lc  MMC_SD_CardMode_Drv.o [4]
_Delayus(unsigned int)  0x0003b1d8    0x2c  Code  Lc  FS_MMC_HW_MCI.o [1]
_DisableRxInterruptEP   0x00040ce8    0x10  Code  Lc  USB_HW_LPC23xx.o [9]
_DisableTx              0x00041008     0x4  Code  Lc  USB_HW_LPC23xx.o [9]
_EPEnabled              0x4000f680     0x4  Data  Lc  USB_HW_LPC23xx.o [9]
_Enable                 0x00040fb8     0x4  Code  Lc  USB_HW_LPC23xx.o [9]
_EnableEP               0x000409b8     0x4  Code  Lc  USB_HW_LPC23xx.o [9]
_EnableISR(int)         0x00050170    0x30  Code  Lc  USB_Config_LPC2378.o [1]
_EnableRxInterruptEP    0x00040cf8    0x60  Code  Lc  USB_HW_LPC23xx.o [9]
_ErrorFilter            0x4000f684     0x4  Data  Lc  FS_ErrorOut.o [4]
_EventNet               0x4000f018     0x8  Data  Lc  IP_OS.o [1]
_EventRx                0x4000f020     0x8  Data  Lc  IP_OS.o [1]
_ExecInquiry            0x00027e88   0x1a4  Code  Lc  USB_MSD.o [9]
_ExecModeSense6         0x000287cc     0x4  Code  Lc  USB_MSD.o [9]
_ExecPreventAllowRemoval
                        0x000288b0    0x3c  Code  Lc  USB_MSD.o [9]
_ExecRead               0x0002809c   0x228  Code  Lc  USB_MSD.o [9]
_ExecReadCapacity       0x0002855c    0xac  Code  Lc  USB_MSD.o [9]
_ExecReadFormatCapacity
                        0x00028608    0xd0  Code  Lc  USB_MSD.o [9]
_ExecRequestSense       0x0002802c    0x70  Code  Lc  USB_MSD.o [9]
_ExecStartStopUnit      0x000288a8     0x8  Code  Lc  USB_MSD.o [9]
_ExecTestUnitReady      0x000288a0     0x8  Code  Lc  USB_MSD.o [9]
_ExecVerify             0x0002846c    0xf0  Code  Lc  USB_MSD.o [9]
_ExecWrite              0x000282c4   0x1a4  Code  Lc  USB_MSD.o [9]
_FatFormatEx            0x0003f190   0x650  Code  Lc  FAT_Format.o [4]
_GetBuffer              0x0004e660    0x38  Code  Lc  USB_MSD_STORAGE_FS.o [9]
_GetCmdInfo             0x000288ec   0x1e8  Code  Lc  USB_MSD.o [9]
_GetFromCSD             0x0002f454    0x4c  Code  Lc  MMC_SD_CardMode_Drv.o [4]
_GetInfo                0x0004e548    0x6c  Code  Lc  USB_MSD_STORAGE_FS.o [9]
_GetMaxPacketSize       0x00040fbc     0x8  Code  Lc  USB_HW_LPC23xx.o [9]
_GetPacketSize          0x000423cc    0x84  Code  Lc  IP_NI_LPC24xx.o [5]
_GetReadBuffer          0x0004e698     0x4  Code  Lc  USB_MSD_STORAGE_FS.o [9]
_GetString              0x000328ec    0x44  Code  Lc  USB_Setup.o [9]
_GetWriteBuffer         0x0004e6dc     0x4  Code  Lc  USB_MSD_STORAGE_FS.o [9]
_HandleCmd              0x00028d10   0x350  Code  Lc  USB_MSD.o [9]
_HandleOptions          0x0002172c   0x1c4  Code  Lc  IP_TCP_in.o [5]
_HandleRead()           0x00043914   0x1e0  Code  Lc  JLINKDCC_ProcessV2.o [1]
_HandleWrite()          0x00043af4   0x334  Code  Lc  JLINKDCC_ProcessV2.o [1]
_IF_Timer               0x00039ca4    0x84  Code  Lc  IP_Core.o [5]
_IP_PHY_GetLinkState    0x0004c4b0    0xec  Code  Lc  IP_PHY.o [5]
_IP_PHY_Init            0x0004c2a8   0x208  Code  Lc  IP_PHY.o [5]
_IRQHandler             0x00040d5c    0xec  Code  Lc  USB_HW_LPC23xx.o [9]
_ISRSetPrio(int, int)   0x000501a0    0x50  Code  Lc  USB_Config_LPC2378.o [1]
_ISR_Handler            0x00041f64   0x124  Code  Lc  IP_NI_LPC24xx.o [5]
_IgnoreCRC              0x4000f36f     0x1  Data  Lc  FS_MMC_HW_MCI.o [1]
_Init                   0x00042088   0x270  Code  Lc  IP_NI_LPC24xx.o [5]
_Init                   0x0004e5b4    0x78  Code  Lc  USB_MSD_STORAGE_FS.o [9]
_Init                   0x00040e4c    0x88  Code  Lc  USB_HW_LPC23xx.o [9]
_InitByName             0x0004e62c    0x20  Code  Lc  USB_MSD_STORAGE_FS.o [9]
_InitData               0x4000d8d4     0x4  Data  Lc  USB_MSD.o [9]
_InitPLL()              0x00044f10   0x158  Code  Lc  RTOSINIT_LPC2378.o [1]
_Init_VIC()             0x00045068    0x68  Code  Lc  RTOSINIT_LPC2378.o [1]
_InstallISRHandler(int, void (*)())
                        0x0005011c    0x54  Code  Lc  USB_Config_LPC2378.o [1]
_InvalidateAllEPs       0x000342f8    0x44  Code  Lc  USB_Main.o [9]
_IsInHighSpeedMode      0x0004100c     0x8  Code  Lc  USB_HW_LPC23xx.o [9]
_IsMediumPresent        0x000287e0    0xc0  Code  Lc  USB_MSD.o [9]
_LitobSmall             0x00041dac   0x144  Code  Lc  xprintfsmall.o [3]
_LoadU32                0x000408b0    0x20  Code  Lc  USB_HW_LPC23xx.o [9]
_Lock                   0x4000ec84    0x14  Data  Lc  IP_OS.o [1]
_Log2PhyEPAdr           0x000408d0    0x1c  Code  Lc  USB_HW_LPC23xx.o [9]
_LogFilter              0x4000f678     0x4  Data  Lc  IP_Log.o [5]
_MMC_AddDevice          0x0003046c    0x44  Code  Lc  MMC_SD_CardMode_Drv.o [4]
_MMC_GetDriverName      0x000304c0     0xc  Code  Lc  MMC_SD_CardMode_Drv.o [4]
_MMC_GetNumUnits        0x000304b0    0x10  Code  Lc  MMC_SD_CardMode_Drv.o [4]
_MMC_GetStatus          0x00030334    0x38  Code  Lc  MMC_SD_CardMode_Drv.o [4]
_MMC_Init               0x0002fb38   0x448  Code  Lc  MMC_SD_CardMode_Drv.o [4]
_MMC_InitMedium         0x0003042c    0x40  Code  Lc  MMC_SD_CardMode_Drv.o [4]
_MMC_IoCtl              0x0003036c    0x54  Code  Lc  MMC_SD_CardMode_Drv.o [4]
_MMC_Read               0x000303f0    0x20  Code  Lc  MMC_SD_CardMode_Drv.o [4]
_MMC_Write              0x000303c0    0x30  Code  Lc  MMC_SD_CardMode_Drv.o [4]
_MSDResetRequired       0x4000d9ca     0x1  Data  Lc  USB_MSD.o [9]
_MSDState               0x4000d9cb     0x1  Data  Lc  USB_MSD.o [9]
_MaxLun                 0x4000d9c9     0x1  Data  Lc  USB_MSD.o [9]
_MaxPower               0x4000f4a8     0x1  Data  Lc  USB_Setup.o [9]
_MediumIsPresent        0x0004e720    0x48  Code  Lc  USB_MSD_STORAGE_FS.o [9]
_ModeSense              0x000286d8    0xf4  Code  Lc  USB_MSD.o [9]
_NumAllocs              0x4000ef88     0x4  Data  Lc  FS_Core.o [4]
_NumBytesAvailable      0x4000ef80     0x4  Data  Lc  FS_Core.o [4]
_NumReadItems           0x4000f356     0x2  Data  Lc  JLINKDCC_ProcessV2.o [1]
_NumTimers              0x4000e59c     0x4  Data  Lc  IP_Core.o [5]
_NumUnits               0x4000f03c     0x4  Data  Lc  MMC_SD_CardMode_Drv.o [4]
_NumUnits               0x4000d9c8     0x1  Data  Lc  USB_MSD.o [9]
_OS_ISR_Tick()          0x000450d0    0x20  Code  Lc  RTOSINIT_LPC2378.o [1]
_OS_ISR_Undefined()     0x0004521c    0x20  Code  Lc  RTOSINIT_LPC2378.o [1]
_OS_RSema_OnTerminate   0x0004e0c8    0x74  Code  Lc  OSRSEM.o [6]
_OnClassRequest         0x00029060    0xc4  Code  Lc  USB_MSD.o [9]
_OnEP0Setup             0x00040b0c    0x80  Code  Lc  USB_HW_LPC23xx.o [9]
_OnEPIn                 0x00040ba8    0x1c  Code  Lc  USB_HW_LPC23xx.o [9]
_OnEPOut                0x00040b8c    0x1c  Code  Lc  USB_HW_LPC23xx.o [9]
_OnRx2TargetBuffer      0x000343f4    0x64  Code  Lc  USB_Main.o [9]
_OnSetupRequest         0x00029124    0x80  Code  Lc  USB_MSD.o [9]
_PHY_Context            0x4000eb6c    0x10  Data  Lc  IP_NI_LPC24xx.o [5]
_PHY_ReadReg            0x00041f20    0x40  Code  Lc  IP_NI_LPC24xx.o [5]
_PHY_WriteReg           0x00041ef0    0x30  Code  Lc  IP_NI_LPC24xx.o [5]
_PHY_pAccess            0x00055138     0x8  Data  Lc  IP_NI_LPC24xx.o [5]
_PendingPacketNB        0x4000f174     0x4  Data  Lc  JLINKDCC_ProcessV2.o [1]
_PrintIPAddr            0x000481b8    0xe4  Code  Lc  IP_Log.o [5]
_PrintUnsigned          0x00048124    0x94  Code  Lc  IP_Log.o [5]
_PrintUnsigned          0x0004e9ac    0x9c  Code  Lc  FS_Log.o [4]
_PrintfSmall            0x000417ec   0x54c  Code  Gb  xprintfsmall.o [3]
_Prout                  0x00055c7c    0x28  Code  Gb  xprout.o [3]
_RdPos                  0x4000f168     0x4  Data  Lc  JLINKDCC_ProcessV2.o [1]
_Read                   0x0004e69c    0x40  Code  Lc  USB_MSD_STORAGE_FS.o [9]
_Read                   0x00040a44    0xc8  Code  Lc  USB_HW_LPC23xx.o [9]
_Read                   0x0003e938    0xc8  Code  Lc  FS_LogBlock.o [4]
_ReadCmdData            0x00040940    0x38  Code  Lc  USB_HW_LPC23xx.o [9]
_ReadDCC()              0x00043904     0x8  Code  Lc  JLINKDCC_ProcessV2.o [1]
_ReadDCCStat()          0x000438fc     0x8  Code  Lc  JLINKDCC_ProcessV2.o [1]
_ReadData               0x0004bf8c   0x21c  Code  Lc  FAT_Read.o [4]
_ReadEP                 0x00034458   0x114  Code  Lc  USB_Main.o [9]
_ReadPacket             0x00042450    0x40  Code  Lc  IP_NI_LPC24xx.o [5]
_ReadSectors            0x0002ff80   0x1c0  Code  Lc  MMC_SD_CardMode_Drv.o [4]
_ReceiveEP              0x0003456c    0x54  Code  Lc  USB_Main.o [9]
_RemovePendingOperation
                        0x00034284    0x74  Code  Lc  USB_Main.o [9]
_Reset                  0x000409dc    0x68  Code  Lc  USB_HW_LPC23xx.o [9]
_ResetDataToggleEP      0x000329f4    0x20  Code  Lc  USB_Setup.o [9]
_ResetEP                0x00041014     0x4  Code  Lc  USB_HW_LPC23xx.o [9]
_SB_Clean               0x00041058    0x40  Code  Lc  FS_Misc.o [4]
_SFN_CreateDirEntry     0x00030808    0x9c  Code  Lc  FAT_Misc.o [4]
_SFN_FindDirEntry       0x000307e4    0x24  Code  Lc  FAT_Misc.o [4]
_SFN_ReadDirEntryInfo   0x0003073c    0xa8  Code  Lc  FAT_Misc.o [4]
_SelectCard             0x0002f52c    0xd0  Code  Lc  MMC_SD_CardMode_Drv.o [4]
_SendARPReply           0x00043518    0xec  Code  Lc  IP_ARP.o [5]
_SendARPRequest         0x0004339c   0x17c  Code  Lc  IP_ARP.o [5]
_SendAdvCommand         0x0002f4a0    0x8c  Code  Lc  MMC_SD_CardMode_Drv.o [4]
_SendCSW                0x00027e18    0x3c  Code  Lc  USB_MSD.o [9]
_SendEP                 0x00040bc4    0x90  Code  Lc  USB_HW_LPC23xx.o [9]
_SendEthernetPacket     0x0004332c    0x70  Code  Lc  IP_ARP.o [5]
_SendPacketIfTxIdle     0x000422f8    0xd0  Code  Lc  IP_NI_LPC24xx.o [5]
_SetAddress             0x00040cb4    0x34  Code  Lc  USB_HW_LPC23xx.o [9]
_SetClrFeature          0x00032c48    0xec  Code  Lc  USB_Setup.o [9]
_SetClrStallEP          0x00040c7c    0x38  Code  Lc  USB_HW_LPC23xx.o [9]
_ShowStamp()            0x0004d8a4    0xc0  Code  Lc  IP_ConfigIO.o [1]
_StallEP0               0x00040c54    0x28  Code  Lc  USB_HW_LPC23xx.o [9]
_StallEPs               0x00027e6c    0x1c  Code  Lc  USB_MSD.o [9]
_StartTx                0x00040fc4    0x44  Code  Lc  USB_HW_LPC23xx.o [9]
_StoreChar              0x00048104    0x20  Code  Lc  IP_Log.o [5]
_StoreDataResidueInCSW  0x00027e10     0x8  Code  Lc  USB_MSD.o [9]
_String_val::_String_val(char_allocator) [internal]
                        0x00056578    0x18  Code  Gb  Alarm.o [1]
_String_val::_String_val(char_allocator) [subobject]
                        0x00056560    0x18  Code  Gb  Alarm.o [1]
_Timer                  0x00042490    0x78  Code  Lc  IP_NI_LPC24xx.o [5]
_TxIsBusy               0x4000eb8c     0x1  Data  Lc  IP_NI_LPC24xx.o [5]
_UpdateDirEntry         0x0004447c    0xac  Code  Lc  FAT_Write.o [4]
_UpdateEP               0x00040f90    0x28  Code  Lc  USB_HW_LPC23xx.o [9]
_UpdateRTT              0x00021610   0x11c  Code  Lc  IP_TCP_in.o [5]
_Use4BitMode            0x0002f70c   0x24c  Code  Lc  MMC_SD_CardMode_Drv.o [4]
_Wait4Ready             0x0002f630    0xdc  Code  Lc  MMC_SD_CardMode_Drv.o [4]
_WaitForEndOfTransfer   0x000345c0    0x84  Code  Lc  USB_Main.o [9]
_WarnFilter             0x4000f67c     0x4  Data  Lc  IP_Log.o [5]
_WarnFilter             0x4000f688     0x4  Data  Lc  FS_Warn.o [4]
_WrPos                  0x4000f16c     0x4  Data  Lc  JLINKDCC_ProcessV2.o [1]
_Write                  0x0004e6e0    0x40  Code  Lc  USB_MSD_STORAGE_FS.o [9]
_WriteBurst             0x00044428    0x54  Code  Lc  FAT_Write.o [4]
_WriteCmd               0x000408ec    0x20  Code  Lc  USB_HW_LPC23xx.o [9]
_WriteCmdWithData       0x0004090c    0x34  Code  Lc  USB_HW_LPC23xx.o [9]
_WriteControlReg(unsigned char)
                        0x0003b240    0x28  Code  Lc  FS_MMC_HW_MCI.o [1]
_WriteDCC(unsigned int)
                        0x0004390c     0x8  Code  Lc  JLINKDCC_ProcessV2.o [1]
_WriteData              0x00044528   0x288  Code  Lc  FAT_Write.o [4]
_WriteEP0               0x00032a14     0x4  Code  Lc  USB_Setup.o [9]
_WriteEP0_NULL          0x00032a18    0x10  Code  Lc  USB_Setup.o [9]
_WriteFATEntry          0x00030508   0x234  Code  Lc  FAT_Misc.o [4]
_WritePending           0x4000f37c     0x1  Data  Lc  JLINKDCC_ProcessV2.o [1]
_WritePendingNB         0x4000f37b     0x1  Data  Lc  JLINKDCC_ProcessV2.o [1]
_WriteSectors           0x00030140   0x1f4  Code  Lc  MMC_SD_CardMode_Drv.o [4]
_WriteUnsigned(char *, unsigned long, int)
                        0x0004d7e0    0xc4  Code  Lc  IP_ConfigIO.o [1]
__aeabi_atexit          0x00056ea0    0x10  Code  Gb  targetabi.o [3]
__aeabi_cdcmpeq         0x00055a98          Code  Gb  DblCmpEq.o [7]
__aeabi_cdcmple         0x0005548c          Code  Gb  DblCmpLe.o [7]
__aeabi_cdrcmple        0x000554c4          Code  Gb  DblCmpGe.o [7]
__aeabi_cfcmple         0x00055a40          Code  Gb  FltCmpLe.o [7]
__aeabi_cfrcmple        0x00055a6c          Code  Gb  FltCmpGe.o [7]
__aeabi_d2f             0x000527d4          Code  Gb  DblToFlt.o [7]
__aeabi_d2iz            0x0005413c          Code  Gb  DblToS32.o [7]
__aeabi_d2uiz           0x000553a8          Code  Gb  DblToU32.o [7]
__aeabi_dadd            0x00050a18          Code  Gb  DblAdd.o [7]
__aeabi_ddiv            0x0004b618          Code  Gb  DblDiv.o [7]
__aeabi_dmul            0x0004edac          Code  Gb  DblMul.o [7]
__aeabi_dsub            0x0004f194          Code  Gb  DblSub.o [7]
__aeabi_errno_addr      0x00055ca4    0x28  Code  Gb  errno.o [3]
__aeabi_f2d             0x00053e94          Code  Gb  FltToDbl.o [7]
__aeabi_f2iz            0x0005435c          Code  Gb  FltToS32.o [7]
__aeabi_f2uiz           0x000556d8          Code  Gb  FltToU32.o [7]
__aeabi_fadd            0x00052c64          Code  Gb  FltAdd.o [7]
__aeabi_fdiv            0x0004f72c          Code  Gb  FltDiv.o [7]
__aeabi_fmul            0x000508cc          Code  Gb  FltMul.o [7]
__aeabi_fsub            0x00050dc8          Code  Gb  FltSub.o [7]
__aeabi_i2d             0x000543b4          Code  Gb  S32ToDbl.o [7]
__aeabi_i2f             0x00053ef8          Code  Gb  S32ToFlt.o [7]
__aeabi_idiv            0x0004f558          Code  Gb  I32DivMod.o [7]
__aeabi_idiv0           0x000573b0          Code  Gb  IntDivZer.o [7]
__aeabi_idivmod         0x0004f558          Code  Gb  I32DivMod.o [7]
__aeabi_memclr          0x0005735c          Code  Gb  ABImemclr.o [7]
__aeabi_memclr4         0x00057354          Code  Gb  ABImemclr4.o [7]
__aeabi_memcpy          0x0005202c          Code  Gb  ABImemcpy.o [7]
__aeabi_memcpy4         0x00052050          Code  Gb  ABImemcpy.o [7]
__aeabi_memcpy8         0x00052050          Code  Gb  ABImemcpy.o [7]
__aeabi_memmove         0x00052100          Code  Gb  ABImemmove.o [7]
__aeabi_memmove4        0x00052100          Code  Gb  ABImemmove.o [7]
__aeabi_memmove8        0x00052100          Code  Gb  ABImemmove.o [7]
__aeabi_memset          0x00053658          Code  Gb  ABImemset.o [7]
__aeabi_memset4         0x00054ed8          Code  Gb  ABImemset48.o [7]
__aeabi_memset8         0x00054ed8          Code  Gb  ABImemset48.o [7]
__aeabi_ui2d            0x0005711c          Code  Gb  U32ToDbl.o [7]
__aeabi_ui2f            0x00056eb0          Code  Gb  U32ToFlt.o [7]
__aeabi_uidiv           0x0004f568          Code  Gb  I32DivMod.o [7]
__aeabi_uidivmod        0x0004f568          Code  Gb  I32DivMod.o [7]
__call_ctors            0x000519c0    0x38  Code  Gb  cppinit.o [3]
__call_dtors            0x00051a44     0x8  Code  Gb  cppinit.o [3]
__cstart_call_dtors     0x00056624          Code  Gb  cexit.o [7]
__cstart_closeall       0x00056628          Code  Gb  cexit.o [7]
__cxa_atexit            0x000519f8    0x4c  Code  Gb  cppinit.o [3]
__cxa_finalize          0x00051a4c    0x78  Code  Gb  cppinit.o [3]
__cxa_pure_virtual      0x0005734c     0x8  Code  Gb  xpurevirtual.o [3]
__data_Aldata           0x4000f060     0x8  Data  Gb  xxmemxmalloc.o [3]
__data_GetMemChunk      0x00055200    0x40  Code  Gb  xgetmemchunk.o [3]
__dso_handle            0x4000f330     0x4  Data  Gb  cppinit.o [3]
__dwrite                0x0005582c    0x30  Code  Gb  dwrite.o [8]
__exit                  0x00056090    0x20  Code  Gb  exit.o [8]
__iar_Dint              0x00050378   0x15c  Code  Gb  xdint.o [3]
__iar_Dnorm             0x000504d4   0x154  Code  Gb  xdnorm.o [3]
__iar_Errno             0x4000f05c     0x4  Data  Gb  errno.o [3]
__iar_FDint             0x00051ca4    0xe8  Code  Gb  xfdint.o [3]
__iar_FDnorm            0x00051e70    0xe0  Code  Gb  xfdnorm.o [3]
__iar_FLog              0x0004cb10   0x2a8  Code  Gb  xflog.o [3]
__iar_Locksyslock       0x00052694    0x6c  Code  Gb  xsyslock.o [3]
__iar_Log               0x00047818   0x490  Code  Gb  xlog.o [3]
__iar_Memchr            0x00053008          Code  Gb  memchr.o [7]
__iar_Memset            0x00053658          Code  Gb  ABImemset.o [7]
__iar_Memset4_word      0x00054ee4          Code  Gb  ABImemset48.o [7]
__iar_Memset8_word      0x00054ee4          Code  Gb  ABImemset48.o [7]
__iar_Memset_word       0x00053664          Code  Gb  ABImemset.o [7]
__iar_Mtxdst            0x00054e98     0x4  Code  Gb  MtxWrapper.o [3]
__iar_Mtxinit           0x00054e90     0x8  Code  Gb  MtxWrapper.o [3]
__iar_Mtxlock           0x00054eb8     0x8  Code  Gb  MtxWrapper.o [3]
__iar_Mtxunlock         0x00054ec0     0x8  Code  Gb  MtxWrapper.o [3]
__iar_New_hand          0x4000f344     0x4  Data  Gb  new.o [3]
__iar_Strchr            0x000560b0          Code  Gb  strchr.o [7]
__iar_SubNrm            0x000509ec          Code  Gb  FltMul.o [7]
__iar_SubNrmP           0x000509e8          Code  Gb  FltMul.o [7]
__iar_Tls_setup___iar_Errno
                        0x4000f058     0x4  Data  Gb  errno.o [3]
__iar_Unlocksyslock     0x00052700    0x20  Code  Gb  xsyslock.o [3]
__iar_cstart_call_ctors
                        0x0005550c          Code  Gb  cmain.o [7]
__iar_dadd              0x00050a28          Code  Gb  DblAdd.o [7]
__iar_data_init2        0x00055534    0x38  Code  Gb  data_init2.o [7]
__iar_dsub              0x0004f1a4          Code  Gb  DblSub.o [7]
__iar_dsubStart         0x0004f1c4          Code  Gb  DblSub.o [7]
__iar_fadd              0x00052c70          Code  Gb  FltAdd.o [7]
__iar_fsub              0x00050dd4          Code  Gb  FltSub.o [7]
__iar_fsubStart         0x00050de4          Code  Gb  FltSub.o [7]
__iar_i2d               0x000543b8          Code  Gb  S32ToDbl.o [7]
__iar_i2f               0x00053f0c          Code  Gb  S32ToFlt.o [7]
__iar_packbits_init2    0x00051ac8    0xf4  Code  Gb  packbits_init2.o [7]
__iar_program_start     0x0005483c          Code  Gb  cstartup.o [7]
__iar_return_from_swi   0x000573b4     0x4  Code  Gb  xreturnswi.o [8]
__iar_sh_stdout         0x00052a00    0x74  Code  Gb  iarwstd.o [8]
__iar_sh_stdout_close   0x000529d0    0x30  Code  Gb  iarwstd.o [8]
__iar_sh_stdout_handle  0x4000f34c     0x4  Data  Lc  iarwstd.o [8]
__iar_sh_write          0x000550bc    0x44  Code  Gb  iarwrite.o [8]
__iar_zero_init2        0x00055ccc    0x28  Code  Gb  zero_init2.o [7]
__low_level_init        0x000450f0    0x44  Code  Gb  RTOSINIT_LPC2378.o [1]
__vector                0x00000000          Code  Gb  cstartup.o [7]
__write_buffered        0x0005021c   0x15c  Code  Gb  xxwritebuffered.o [3]
_aARP                   0x4000f59c    0x70  Data  Lc  IP_ARP.o [5]
_aAccessMode            0x00052d08    0x78  Data  Lc  FS_Misc.o [4]
_aCHSInfo               0x000546fc    0x50  Data  Lc  FAT_FormatSD.o [4]
_aCSW                   0x4000d9b8    0x10  Data  Lc  USB_MSD.o [9]
_aData                  0x4000d9cc    0x40  Data  Lc  USB_MSD.o [9]
_aDescBuffer            0x4000f3a8   0x100  Data  Lc  USB_Setup.o [9]
_aDriverData            0x4000e6bc    0x40  Data  Lc  USB_MSD_STORAGE_FS.o [9]
_aEPOutIntEnable        0x4000f040     0x8  Data  Lc  USB_HW_LPC23xx.o [9]
_aEvent                 0x4000e700    0x40  Data  Lc  USB_OS.o [1]
_aFATTypeInfo           0x0004fdd0    0x18  Data  Lc  FAT_Format.o [4]
_aFactor                0x0005442c    0x10  Data  Lc  MMC_SD_CardMode_Drv.o [4]
_aFormatInfo            0x00053cfc    0x68  Data  Lc  FAT_Format.o [4]
_aInquiry               0x00057304     0x8  Data  Lc  USB_MSD.o [9]
_aLunInfo               0x4000d8d8    0xc0  Data  Lc  USB_MSD.o [9]
_aMemBlock              0x40005ad8  0x2200  Data  Lc  FS_ConfigMMC_MCI.o [1]
_aPool                  0x40001ad8  0x4000  Data  Gb  IP_Config_LPC23xx.o [1]
_aSizeInfo              0x00054c98    0x48  Data  Lc  FAT_FormatSD.o [4]
_aTimer                 0x4000e524    0x78  Data  Lc  IP_Core.o [5]
_aUnit                  0x0005440c    0x20  Data  Lc  MMC_SD_CardMode_Drv.o [4]
_abHardwareAddrBroadcast
                        0x0005730c     0x8  Data  Gb  IP_ARP.o [5]
_acBuffer               0x4000a888   0x400  Data  Lc  JLINKDCC_ProcessV2.o [1]
_acVolumeLabel          0x0004ff40     0xc  Data  Gb  FAT_Format.o [4]
_accept                 0x0002c49c   0x170  Code  Lc  IP_socket.o [5]
_apInst                 0x4000f038     0x4  Data  Lc  MMC_SD_CardMode_Drv.o [4]
_cbw                    0x4000d998    0x20  Data  Lc  USB_MSD.o [9]
_exit                   0x00056620          Code  Gb  cexit.o [7]
_ld(unsigned long)      0x0003b204    0x3c  Code  Lc  FS_MMC_HW_MCI.o [1]
_pBuffer                0x4000e6fc     0x4  Data  Lc  USB_MSD_STORAGE_FS.o [9]
_pFirstSCHook           0x4000d8d0     0x4  Data  Lc  USB_Main.o [9]
_pMem                   0x4000ef7c     0x4  Data  Lc  FS_Core.o [4]
_pTCPWait               0x4000f15c     0x4  Data  Lc  IP_OS.o [1]
_pTxBuffer              0x4000eb88     0x4  Data  Lc  IP_NI_LPC24xx.o [5]
_paRxBufDesc            0x4000eb7c     0x4  Data  Lc  IP_NI_LPC24xx.o [5]
_paRxBufStat            0x4000eb80     0x4  Data  Lc  IP_NI_LPC24xx.o [5]
_paTxBufDesc            0x4000eb84     0x4  Data  Lc  IP_NI_LPC24xx.o [5]
_pfOnRx                 0x4000f028     0x8  Data  Gb  JLINKDCC_ProcessV2.o [1]
_pfOnRx                 0x4000e608     0x4  Data  Lc  IP_ICMP.o [5]
_pfOnTx                 0x4000f030     0x8  Data  Gb  JLINKDCC_ProcessV2.o [1]
_puts(const char *)     0x0004d7ac    0x34  Code  Lc  IP_ConfigIO.o [1]
_sendto                 0x0002cdfc   0x130  Code  Lc  IP_socket.o [5]
_soclose                0x0002c284   0x214  Code  Lc  IP_socket.o [5]
_socreate               0x0002bf7c    0xcc  Code  Lc  IP_socket.o [5]
_sosend                 0x0002c648   0x340  Code  Lc  IP_socket.o [5]
_strlen                 0x000324ec    0x28  Code  Lc  USB_Setup.o [9]
_udp_soinput            0x00043e98    0xd0  Code  Lc  IP_UDPSock.o [5]
aKeyInfo                0x0005077c   0x150  Data  Lc  Font2.o [1]
abort                   0x00057128     0xc  Code  Gb  abort.o [3]
alarm_music             0x0001fa54  0x1bbc  Data  Lc  Sound.o [1]
arp_ageout              0x4000f598     0x4  Data  Lc  IP_ARP.o [5]
b_e_chars               0x00017aac  0x257c  Data  Lc  Font.o [1]
b_f_chars               0x00008108  0x399c  Data  Lc  Font.o [1]
b_f_n_chars             0x000495a4   0x3f4  Data  Lc  Font.o [1]
b_icons                 0x0002949c  0x154c  Data  Lc  Font.o [1]
ceil                    0x00053b4c    0x70  Code  Gb  ceil.o [3]
char_allocator::char_allocator()
                        0x00056548    0x18  Code  Gb  Alarm.o [1]
char_allocator::char_allocator() [internal]
                        0x000573a0     0x4  Code  Gb  Alarm.o [1]
char_traits::length(const char *)
                        0x00056ad4    0x14  Code  Gb  Alarm.o [1]
clearlocks              0x00052668    0x2c  Code  Lc  xsyslock.o [3]
ding_dang_music         0x000150f0  0x29bc  Data  Lc  Sound.o [1]
ding_music              0x0001dd78  0x1cdc  Data  Lc  Sound.o [1]
dtom                    0x0003dd20    0x5c  Code  Gb  IP_TCP.o [5]
exit                    0x00057364     0x8  Code  Gb  exit.o [3]
firstudp                0x4000f31c     0x4  Data  Gb  IP_Core.o [5]
floorf                  0x00054658    0x54  Code  Gb  floorf.o [3]
free                    0x000516a0   0x110  Code  Gb  xxmemxfree.o [3]
icmp_destun             0x0004d424   0x128  Code  Gb  IP_ICMP.o [5]
if_netnumber            0x0003a5c4     0x8  Code  Gb  IP_Core.o [5]
in_broadcast            0x0003e0b4    0x18  Code  Gb  IP_TCP.o [5]
in_setpeeraddr          0x000476a4    0x40  Code  Gb  IP_TCP_pcb.o [5]
in_setsockaddr          0x00047664    0x40  Code  Gb  IP_TCP_pcb.o [5]
index_table             0x0004de88   0x240  Data  Lc  Font2.o [1]
inpcb_cachehits         0x4000f050     0x4  Data  Gb  IP_TCP_pcb.o [5]
inpcb_cachemiss         0x4000f054     0x4  Data  Gb  IP_TCP_pcb.o [5]
insert_device_music     0x000230bc  0x1a0c  Data  Lc  Sound.o [1]
insque                  0x0003dda4    0x20  Code  Gb  IP_TCP.o [5]
ip_mib                  0x4000f524    0x50  Data  Gb  IP_Core.o [5]
ip_mymach               0x0003a5cc     0xc  Code  Gb  IP_Core.o [5]
ip_output               0x0003de10   0x2a4  Code  Gb  IP_TCP.o [5]
irq_handler             0x0004f124          Code  Gb  rtos.o [6]
log                     0x00055e38    0x24  Code  Gb  Key.o [1]
log(float)              0x00056258    0x1c  Code  Gb  Key.o [1]
logo                    0x000489b4   0x400  Data  Lc  Font.o [1]
m_adj                   0x0003dc28    0xd0  Code  Gb  IP_TCP.o [5]
m_copy                  0x0003da80   0x1a8  Code  Gb  IP_TCP.o [5]
m_e_chars               0x0002a9e8  0x146c  Data  Lc  Font.o [1]
m_f_chars               0x0001a028  0x1f60  Data  Lc  Font.o [1]
m_f_n_chars             0x0004e784   0x228  Data  Lc  Font.o [1]
m_free                  0x0003d9d0    0x94  Code  Gb  IP_TCP.o [5]
m_freem                 0x0003da64    0x1c  Code  Gb  IP_TCP.o [5]
m_icons                 0x0005236c    0xc8  Data  Lc  Font.o [1]
main                    0x00055a14    0x2c  Code  Gb  Main.o [1]
malloc                  0x00050628   0x154  Code  Gb  xxmemxmalloc.o [3]
mbstat                  0x4000f048     0x8  Data  Gb  IP_TCP.o [5]
mbuf_len                0x0003dcf8    0x28  Code  Gb  IP_TCP.o [5]
memchr                  0x00053008          Code  Gb  memchr.o [7]
memcmp                  0x000538a8          Code  Gb  memcmp.o [7]
memcpy                  0x00055990    0x2c  Code  Gb  Communication.o [1]
memset                  0x000559e8    0x2c  Code  Gb  MY_USB.o [1]
mtx                     0x4000ef1c    0x10  Data  Lc  xsyslock.o [3]
mtxdst                  0x4000f338     0x4  Data  Lc  MtxWrapper.o [3]
mtxinit                 0x4000f334     0x4  Data  Lc  MtxWrapper.o [3]
mtxlock                 0x4000f33c     0x4  Data  Lc  MtxWrapper.o [3]
mtxunlock               0x4000f340     0x4  Data  Lc  MtxWrapper.o [3]
next_abi_dtor_rec       0x4000f694     0x4  Data  Lc  cppinit.o [3]
operator delete (void *)
                        0x00056afc    0x14  Code  Gb  delop_0.o [3]
operator delete[] (void *)
                        0x000573a4     0x4  Code  Gb  delaop_0.o [3]
operator new (unsigned int)
                        0x00054f20    0x48  Code  Gb  newop_0.o [3]
operator new[] (unsigned int)
                        0x000573a8     0x4  Code  Gb  newaop_0.o [3]
pad                     0x00041d38    0x74  Code  Lc  xprintfsmall.o [3]
pffindproto             0x0003d8dc    0x30  Code  Gb  IP_TCP.o [5]
pffindtype              0x0003d88c    0x50  Code  Gb  IP_TCP.o [5]
pk_free                 0x0004e3ec    0xc8  Code  Gb  IP_Packet.o [5]
pk_init                 0x0004e4b8    0x84  Code  Gb  IP_Packet.o [5]
pow(double, int)        0x000524f0    0xbc  Code  Gb  DAC.o [1]
pow(float, int)         0x00053358    0x88  Code  Gb  DigitalData.o [1]
printf                  0x00055454    0x38  Code  Gb  printf.o [3]
putchar                 0x000551c0    0x40  Code  Gb  putchar.o [3]
remove_device_music     0x00024ac8  0x19f8  Data  Lc  Sound.o [1]
remque                  0x0003dd7c    0x28  Code  Gb  IP_TCP.o [5]
s_e_chars               0x00039120   0xb84  Data  Lc  Font.o [1]
s_f_chars               0x0002d1d0  0x11b0  Data  Lc  Font.o [1]
s_f_n_chars             0x00050b58   0x138  Data  Lc  Font.o [1]
s_icons                 0x000517b0   0x108  Data  Lc  Font.o [1]
sbappend                0x000404d4    0x54  Code  Gb  IP_socket2.o [5]
sbappendaddr            0x00040528    0xd4  Code  Gb  IP_socket2.o [5]
sbcompress              0x000405fc    0xdc  Code  Gb  IP_socket2.o [5]
sbdrop                  0x00040720    0xbc  Code  Gb  IP_socket2.o [5]
sbdropend               0x000407dc    0x80  Code  Gb  IP_socket2.o [5]
sbdroprecord            0x0004085c    0x40  Code  Gb  IP_socket2.o [5]
sbflush                 0x000406d8    0x48  Code  Gb  IP_socket2.o [5]
sbrelease               0x000404bc    0x18  Code  Gb  IP_socket2.o [5]
sbspace                 0x0004089c    0x14  Code  Gb  IP_socket2.o [5]
sbwait                  0x00040430    0x30  Code  Gb  IP_socket2.o [5]
sbwakeup                0x00040460    0x4c  Code  Gb  IP_socket2.o [5]
select_wait             0x4000f358     0x2  Data  Gb  IP_TCP.o [5]
soabort                 0x0002c254    0x20  Code  Gb  IP_socket.o [5]
socantrcvmore           0x0004041c    0x14  Code  Gb  IP_socket2.o [5]
socantsendmore          0x00040408    0x14  Code  Gb  IP_socket2.o [5]
sofree                  0x0002be54   0x124  Code  Gb  IP_socket.o [5]
soisconnected           0x0004011c    0x84  Code  Gb  IP_socket2.o [5]
soisconnecting          0x00040100    0x1c  Code  Gb  IP_socket2.o [5]
soisdisconnected        0x000401bc    0x28  Code  Gb  IP_socket2.o [5]
soisdisconnecting       0x000401a0    0x1c  Code  Gb  IP_socket2.o [5]
sonewconn               0x00040204   0x140  Code  Gb  IP_socket2.o [5]
soqinsque               0x00040344    0x44  Code  Gb  IP_socket2.o [5]
soqremque               0x00040388    0x80  Code  Gb  IP_socket2.o [5]
soreceive               0x0002c988   0x3b8  Code  Gb  IP_socket.o [5]
soreserve               0x000404ac    0x10  Code  Gb  IP_socket2.o [5]
store                   0x4000e66c    0x50  Data  Lc  xxwritebuffered.o [3]
storeLen                0x4000e668     0x4  Data  Lc  xxwritebuffered.o [3]
strcat                  0x000556a4    0x34  Code  Gb  strcat.o [3]
strchr                  0x000560b0          Code  Gb  strchr.o [7]
strcmp                  0x00053834          Code  Gb  strcmp.o [7]
strcpy                  0x00053c28          Code  Gb  strcpy.o [7]
string::_Copy(unsigned int, unsigned int)
                        0x00044d70    0xb0  Code  Gb  string.o [3]
string::_Grow(unsigned int, bool)
                        0x00044e20    0x88  Code  Gb  string.o [3]
string::_Myptr()        0x000561e8    0x1c  Code  Gb  Buffer.o [1]
string::_Pdif(const char *, const char *)
                        0x00056608    0x18  Code  Gb  Control.o [1]
string::_Tidy(bool, unsigned int)
                        0x00044ea8    0x5c  Code  Gb  string.o [3]
string::append(const char *)
                        0x00055c2c    0x28  Code  Gb  Communication.o [1]
string::append(const char *, unsigned int)
                        0x00044a3c    0xc4  Code  Gb  string.o [3]
string::append(const string&)
                        0x000559bc    0x2c  Code  Gb  Communication.o [1]
string::append(const string&, unsigned int, unsigned int)
                        0x000449a0    0x9c  Code  Gb  string.o [3]
string::append(unsigned int, char)
                        0x00044b00    0x84  Code  Gb  string.o [3]
string::assign(const char *)
                        0x00055c04    0x28  Code  Gb  Alarm.o [1]
string::assign(const char *, unsigned int)
                        0x00044c40    0xac  Code  Gb  string.o [3]
string::assign(const string&)
                        0x00055964    0x2c  Code  Gb  Alarm.o [1]
string::assign(const string&, unsigned int, unsigned int)
                        0x00044b84    0xbc  Code  Gb  string.o [3]
string::begin()         0x00056ae8    0x14  Code  Gb  Control.o [1]
string::clear()         0x0005579c    0x30  Code  Gb  Control.o [1]
string::end()           0x0005623c    0x1c  Code  Gb  Control.o [1]
string::erase(char *, char *)
                        0x00054508    0x54  Code  Gb  Control.o [1]
string::erase(unsigned int, unsigned int)
                        0x00044cec    0x84  Code  Gb  string.o [3]
string::length() const  0x00057344     0x8  Code  Gb  Buffer.o [1]
string::npos            0x0005739c     0x4  Data  Gb  string.o [3]
string::operator +=(char)
                        0x00055e14    0x24  Code  Gb  Buffer.o [1]
string::operator +=(const char *)
                        0x00056220    0x1c  Code  Gb  Communication.o [1]
string::operator +=(const string&)
                        0x00056204    0x1c  Code  Gb  Communication.o [1]
string::operator =(const char *)
                        0x000561b0    0x1c  Code  Gb  Alarm.o [1]
string::operator =(const string&)
                        0x00056194    0x1c  Code  Gb  Alarm.o [1]
string::operator [](unsigned int)
                        0x000561cc    0x1c  Code  Gb  Buffer.o [1]
string::size() const    0x0005733c     0x8  Code  Gb  Alarm.o [1]
string::string()        0x00056590    0x18  Code  Gb  Alarm.o [1]
string::string() [internal]
                        0x000552f4    0x3c  Code  Gb  Alarm.o [1]
string::string(const char *)
                        0x000565f0    0x18  Code  Gb  Communication.o [1]
string::string(const char *) [internal]
                        0x0005474c    0x50  Code  Gb  Communication.o [1]
string::string(const string&)
                        0x000565a8    0x18  Code  Gb  Alarm.o [1]
string::string(const string&) [internal]
                        0x000544b4    0x54  Code  Gb  Alarm.o [1]
string::~string()       0x00056178    0x1c  Code  Gb  Alarm.o [1]
string::~string() [internal]
                        0x00055df0    0x24  Code  Gb  Alarm.o [1]
strlen                  0x00054604          Code  Gb  strlen.o [7]
strncmp                 0x00054a54    0x4c  Code  Gb  strncmp.o [3]
strncpy                 0x00052e40          Code  Gb  strncpy.o [7]
syslock_o               0x4000ef18     0x4  Data  Lc  xsyslock.o [3]
t_accept                0x0002c60c    0x3c  Code  Gb  IP_socket.o [5]
t_bind                  0x0002c0ac    0xf0  Code  Gb  IP_socket.o [5]
t_listen                0x0002c19c    0xb8  Code  Gb  IP_socket.o [5]
t_recv                  0x0002cd50    0xac  Code  Gb  IP_socket.o [5]
t_send                  0x0002cf2c   0x144  Code  Gb  IP_socket.o [5]
t_socket                0x0002c04c    0x60  Code  Gb  IP_socket.o [5]
t_socketclose           0x0002d080    0x48  Code  Gb  IP_socket.o [5]
tcp_backoff             0x00056e50    0x10  Data  Gb  IP_TCP_timr.o [5]
tcp_canceltimers        0x00045c1c    0x1c  Code  Gb  IP_TCP_timr.o [5]
tcp_close               0x000488f8    0xa4  Code  Gb  IP_TCP_subr.o [5]
tcp_disconnect          0x00046498    0xe8  Code  Lc  IP_TCP_usr.o [5]
tcp_drop                0x00048870    0x88  Code  Gb  IP_TCP_subr.o [5]
tcp_init                0x0004855c    0x24  Code  Gb  IP_TCP_subr.o [5]
tcp_iss                 0x4000f328     0x4  Data  Gb  IP_TCP_timr.o [5]
tcp_newtcpcb            0x000487cc    0xa4  Code  Gb  IP_TCP_subr.o [5]
tcp_outflags            0x00051bbc     0xc  Data  Gb  IP_TCP_out.o [5]
tcp_output              0x0003cf9c   0x824  Code  Gb  IP_TCP_out.o [5]
tcp_protosw             0x4000f630    0x10  Data  Gb  IP_TCP.o [5]
tcp_quench              0x000489a0    0x14  Code  Gb  IP_TCP_subr.o [5]
tcp_reass               0x000218f0   0x22c  Code  Lc  IP_TCP_in.o [5]
tcp_respond             0x000485f8   0x1d4  Code  Gb  IP_TCP_subr.o [5]
tcp_saveti              0x4000eafc    0x28  Data  Gb  IP_TCP_in.o [5]
tcp_setpersist          0x0003d7c0    0x68  Code  Gb  IP_TCP_out.o [5]
tcp_template            0x00048580    0x78  Code  Gb  IP_TCP_subr.o [5]
tcp_usrreq              0x00046580   0x438  Code  Gb  IP_TCP_usr.o [5]
tcpmib                  0x4000e740    0x3c  Data  Gb  IP_TCP.o [5]
udp4_sockaddr           0x0004439c    0x88  Code  Gb  IP_UDPSock.o [5]
udp4_sockbind           0x000440f8   0x164  Code  Gb  IP_UDPSock.o [5]
udp4_socksend           0x0004425c   0x140  Code  Gb  IP_UDPSock.o [5]
udp_maxalloc            0x00042ae8    0x20  Code  Gb  IP_UDP.o [5]
udp_mib                 0x4000ef9c    0x10  Data  Gb  IP_Core.o [5]
udp_protosw             0x4000f640    0x10  Data  Gb  IP_TCP.o [5]
udp_soinput             0x00043f68    0x14  Code  Lc  IP_UDPSock.o [5]
udp_usrreq              0x00043f7c   0x17c  Code  Gb  IP_UDPSock.o [5]
udpswap                 0x000425e0    0x44  Code  Lc  IP_UDP.o [5]
usocket                 0x4000f35a     0x2  Data  Lc  IP_UDP.o [5]


[1] = E:\Ghadir_Win_Prg\hardware\GP\Output\LPC2388\Debug_Flash\Obj
[2] = command line
[3] = dl4t_al_in.a
[4] = fs4t_al__dn.a
[5] = ip4t_al__d.a
[6] = os4t_al__d.a
[7] = rt4t_al.a
[8] = shs_l.a
[9] = usb4t_al__d.a

  250 388 bytes of readonly  code memory
  106 601 bytes of readonly  data memory
   63 140 bytes of readwrite data memory

Errors: none
Warnings: none
